TN:
SF:/home/kali/Desktop/laba3-3/C++/structures/arr.h
FNL:0,104,106
FNA:0,126,_ZN5ArrayINSt7__cxx1112basic_stringIcSt11char_traitsIcESaIcEEEED2Ev
FNL:1,108,110
FNA:1,56,_ZN5ArrayINSt7__cxx1112basic_stringIcSt11char_traitsIcESaIcEEEE3lenEv
FNL:2,28,38
FNA:2,28,_ZN5ArrayINSt7__cxx1112basic_stringIcSt11char_traitsIcESaIcEEEE6resizeEi
FNL:3,40,44
FNA:3,476,_ZN5ArrayINSt7__cxx1112basic_stringIcSt11char_traitsIcESaIcEEEE5checkEv
FNL:4,54,59
FNA:4,462,_ZN5ArrayINSt7__cxx1112basic_stringIcSt11char_traitsIcESaIcEEEE4pushES5_
FNL:5,61,67
FNA:5,14,_ZN5ArrayINSt7__cxx1112basic_stringIcSt11char_traitsIcESaIcEEEE3setES5_i
FNL:6,75,79
FNA:6,112,_ZN5ArrayINSt7__cxx1112basic_stringIcSt11char_traitsIcESaIcEEEEixEi
FNL:7,87,95
FNA:7,42,_ZN5ArrayINSt7__cxx1112basic_stringIcSt11char_traitsIcESaIcEEEE4findES5_
FNL:8,97,102
FNA:8,14,_ZN5ArrayINSt7__cxx1112basic_stringIcSt11char_traitsIcESaIcEEEE6removeES5_
FNF:9
FNH:9
DA:28,28
DA:29,28
DA:30,700
DA:31,364
DA:32,336
DA:33,336
DA:36,28
DA:37,28
DA:38,28
DA:40,476
DA:41,476
DA:42,28
DA:44,476
DA:54,462
DA:55,462
DA:56,462
DA:57,462
DA:58,462
DA:59,462
DA:61,14
DA:62,14
DA:63,14
DA:64,14
DA:65,14
DA:66,14
DA:67,14
DA:75,112
DA:76,112
DA:77,112
DA:78,98
DA:87,42
DA:88,182
DA:89,168
DA:90,28
DA:94,14
DA:97,14
DA:98,14
DA:99,14
DA:101,14
DA:102,14
DA:104,126
DA:105,1470
DA:106,126
DA:108,56
DA:109,56
LF:45
LH:45
end_of_record
TN:
SF:/home/kali/Desktop/laba3-3/C++/structures/hash.h
FNL:0,113,135
FNA:0,4,_ZN9HashTableINSt7__cxx1112basic_stringIcSt11char_traitsIcESaIcEEEE6RemoveES5_
FNL:1,29,36
FNA:1,3055,_ZN9HashTableINSt7__cxx1112basic_stringIcSt11char_traitsIcESaIcEEEE8hashFuncES5_
FNL:2,38,51
FNA:2,7,_ZN9HashTableINSt7__cxx1112basic_stringIcSt11char_traitsIcESaIcEEEE6ResizeEv
FNL:3,55,57
FNA:3,12,_ZN9HashTableINSt7__cxx1112basic_stringIcSt11char_traitsIcESaIcEEEED2Ev
FNL:4,59,84
FNA:4,2036,_ZN9HashTableINSt7__cxx1112basic_stringIcSt11char_traitsIcESaIcEEEE3AddES5_S5_
FNL:5,92,111
FNA:5,1015,_ZN9HashTableINSt7__cxx1112basic_stringIcSt11char_traitsIcESaIcEEEE3GetES5_
FNF:6
FNH:6
DA:29,3055
DA:30,3055
DA:31,20602
DA:32,17547
DA:33,17547
DA:35,3055
DA:38,7
DA:39,7
DA:40,7
DA:42,2039
DA:44,1023
DA:45,1016
DA:46,1016
DA:50,1030
DA:51,7
DA:55,12
DA:56,1124
DA:57,12
DA:59,2036
DA:60,2036
DA:61,2036
DA:63,2036
DA:65,477649
DA:66,477642
DA:67,2028
DA:68,2028
DA:69,2028
DA:70,2028
DA:72,475614
DA:73,1
DA:75,475613
DA:76,475613
DA:77,1092
DA:78,1092
DA:82,7
DA:83,7
DA:92,1015
DA:93,1015
DA:94,1015
DA:95,1015
DA:97,365632
DA:98,365632
DA:99,1012
DA:101,364620
DA:102,364619
DA:103,364617
DA:104,364617
DA:105,709
DA:106,709
DA:110,0
DA:113,4
DA:114,4
DA:115,4
DA:116,4
DA:118,4
DA:119,4
DA:121,3
DA:122,3
DA:123,3
DA:125,1
DA:126,1
DA:128,0
DA:129,0
DA:130,0
DA:131,0
DA:134,0
LF:66
LH:60
end_of_record
TN:
SF:/home/kali/Desktop/laba3-3/C++/structures/list.h
FNL:0,100,106
FNA:0,28,_ZN4ListINSt7__cxx1112basic_stringIcSt11char_traitsIcESaIcEEEE6removeES5_
FNL:1,108,132
FNA:1,42,_ZN4ListINSt7__cxx1112basic_stringIcSt11char_traitsIcESaIcEEEE6insertES5_i
FNL:2,151,153
FNA:2,98,_ZN4ListINSt7__cxx1112basic_stringIcSt11char_traitsIcESaIcEEEE3lenEv
FNL:3,27,36
FNA:3,14252,_ZN4ListINSt7__cxx1112basic_stringIcSt11char_traitsIcESaIcEEEE3getEi
FNL:4,40,45
FNA:4,14210,_ZN4ListINSt7__cxx1112basic_stringIcSt11char_traitsIcESaIcEEEE4pushES5_
FNL:5,47,49
FNA:5,28,_ZN4ListINSt7__cxx1112basic_stringIcSt11char_traitsIcESaIcEEEE5pushfES5_
FNL:6,51,53
FNA:6,14154,_ZN4ListINSt7__cxx1112basic_stringIcSt11char_traitsIcESaIcEEEEixEi
FNL:7,55,68
FNA:7,14,_ZN4ListINSt7__cxx1112basic_stringIcSt11char_traitsIcESaIcEEEE3popEv
FNL:8,70,79
FNA:8,70,_ZN4ListINSt7__cxx1112basic_stringIcSt11char_traitsIcESaIcEEEE4findES5_
FNL:9,81,98
FNA:9,28,_ZN4ListINSt7__cxx1112basic_stringIcSt11char_traitsIcESaIcEEEE3delEi
FNF:10
FNH:10
DA:27,14252
DA:28,14252
DA:30,14238
DA:31,7007336
DA:32,6993098
DA:33,6993098
DA:35,14238
DA:40,14210
DA:41,14210
DA:42,14210
DA:43,14210
DA:44,14210
DA:45,14210
DA:47,28
DA:48,28
DA:49,28
DA:51,14154
DA:52,14154
DA:55,14
DA:56,14
DA:58,14
DA:60,14
DA:61,14
DA:62,14
DA:64,14
DA:66,14
DA:67,14
DA:70,70
DA:72,126
DA:73,98
DA:74,42
DA:78,28
DA:81,28
DA:82,28
DA:83,28
DA:85,28
DA:86,28
DA:87,0
DA:88,0
DA:91,28
DA:92,28
DA:93,28
DA:95,28
DA:96,28
DA:98,28
DA:100,28
DA:101,28
DA:103,28
DA:105,14
DA:106,14
DA:108,42
DA:109,42
DA:111,42
DA:112,14
DA:115,28
DA:116,28
DA:117,28
DA:118,28
DA:120,42
DA:121,14
DA:122,14
DA:125,28
DA:126,28
DA:127,28
DA:128,28
DA:129,28
DA:132,42
DA:151,98
DA:152,98
LF:69
LH:67
end_of_record
TN:
SF:/home/kali/Desktop/laba3-3/C++/structures/queue.h
FNL:0,23,30
FNA:0,140,_ZN5QueueINSt7__cxx1112basic_stringIcSt11char_traitsIcESaIcEEEE4pushES5_
FNA:0,224,_ZN5QueueIPN8FullTreeINSt7__cxx1112basic_stringIcSt11char_traitsIcESaIcEEEE5NodeTEE4pushES9_
FNL:1,38,40
FNA:1,70,_ZN5QueueINSt7__cxx1112basic_stringIcSt11char_traitsIcESaIcEEEE7isEmptyEv
FNL:2,42,44
FNA:2,112,_ZN5QueueINSt7__cxx1112basic_stringIcSt11char_traitsIcESaIcEEEE5frontEv
FNL:3,46,57
FNA:3,154,_ZN5QueueINSt7__cxx1112basic_stringIcSt11char_traitsIcESaIcEEEE3popEv
FNA:3,224,_ZN5QueueIPN8FullTreeINSt7__cxx1112basic_stringIcSt11char_traitsIcESaIcEEEE5NodeTEE3popEv
FNL:4,59,61
FNA:4,84,_ZN5QueueINSt7__cxx1112basic_stringIcSt11char_traitsIcESaIcEEEED2Ev
FNA:4,112,_ZN5QueueIPN8FullTreeINSt7__cxx1112basic_stringIcSt11char_traitsIcESaIcEEEE5NodeTEED2Ev
FNL:5,63,67
FNA:5,84,_ZN5QueueINSt7__cxx1112basic_stringIcSt11char_traitsIcESaIcEEEE5clearEv
FNA:5,224,_ZN5QueueIPN8FullTreeINSt7__cxx1112basic_stringIcSt11char_traitsIcESaIcEEEE5NodeTEE5clearEv
FNL:6,69,71
FNA:6,70,_ZN5QueueINSt7__cxx1112basic_stringIcSt11char_traitsIcESaIcEEEE3lenEv
FNA:6,140,_ZN5QueueIPN8FullTreeINSt7__cxx1112basic_stringIcSt11char_traitsIcESaIcEEEE5NodeTEE3lenEv
FNF:7
FNH:7
DA:23,364
DA:24,364
DA:25,490
DA:26,126
DA:28,364
DA:29,364
DA:30,364
DA:38,70
DA:39,70
DA:42,112
DA:43,112
DA:46,378
DA:47,378
DA:49,364
DA:50,364
DA:51,364
DA:53,364
DA:55,364
DA:56,364
DA:59,196
DA:60,196
DA:61,196
DA:63,308
DA:64,420
DA:65,112
DA:67,308
DA:69,210
DA:70,210
LF:28
LH:28
end_of_record
TN:
SF:/home/kali/Desktop/laba3-3/C++/structures/stack.h
FNL:0,21,23
FNA:0,84,_ZN5StackINSt7__cxx1112basic_stringIcSt11char_traitsIcESaIcEEEE7isEmptyEv
FNL:1,31,35
FNA:1,14112,_ZN5StackINSt7__cxx1112basic_stringIcSt11char_traitsIcESaIcEEEE4pushES5_
FNL:2,37,48
FNA:2,14140,_ZN5StackINSt7__cxx1112basic_stringIcSt11char_traitsIcESaIcEEEE3popEv
FNL:3,50,52
FNA:3,112,_ZN5StackINSt7__cxx1112basic_stringIcSt11char_traitsIcESaIcEEEE3lenEv
FNL:4,54,56
FNA:4,84,_ZN5StackINSt7__cxx1112basic_stringIcSt11char_traitsIcESaIcEEEED2Ev
FNL:5,58,62
FNA:5,98,_ZN5StackINSt7__cxx1112basic_stringIcSt11char_traitsIcESaIcEEEE5clearEv
FNF:6
FNH:6
DA:21,84
DA:22,84
DA:31,14112
DA:32,14112
DA:33,14112
DA:34,14112
DA:35,14112
DA:37,14140
DA:38,14140
DA:40,14112
DA:41,14112
DA:43,14112
DA:45,14112
DA:46,14112
DA:47,14112
DA:50,112
DA:51,112
DA:54,84
DA:55,84
DA:56,84
DA:58,98
DA:59,126
DA:60,28
DA:62,98
LF:24
LH:24
end_of_record
TN:
SF:/home/kali/Desktop/laba3-3/C++/structures/timer.h
FNL:0,10,10
FNA:0,615,_ZN5Timer5startEv
FNL:1,11,18
FNA:1,615,_ZN5Timer7elapsedEv
FNF:2
FNH:2
DA:10,615
DA:11,615
DA:12,615
DA:13,615
DA:14,615
DA:15,615
DA:16,615
DA:17,615
DA:18,615
LF:9
LH:9
end_of_record
TN:
SF:/home/kali/Desktop/laba3-3/C++/structures/tree.h
FNL:0,149,155
FNA:0,154,_ZN8FullTreeINSt7__cxx1112basic_stringIcSt11char_traitsIcESaIcEEEE6insertES5_
FNL:1,157,159
FNA:1,42,_ZN8FullTreeINSt7__cxx1112basic_stringIcSt11char_traitsIcESaIcEEEE9checkFullEv
FNL:2,27,49
FNA:2,112,_ZN8FullTreeINSt7__cxx1112basic_stringIcSt11char_traitsIcESaIcEEEE12insertHelperEPNS6_5NodeTERS5_
FNL:3,51,58
FNA:3,154,_ZN8FullTreeINSt7__cxx1112basic_stringIcSt11char_traitsIcESaIcEEEE9checkNodeEPNS6_5NodeTE
FNF:4
FNH:4
DA:27,112
DA:28,112
DA:29,112
DA:30,140
DA:31,140
DA:33,140
DA:34,56
DA:35,56
DA:37,84
DA:40,84
DA:41,56
DA:42,56
DA:44,28
DA:48,112
DA:49,112
DA:51,154
DA:52,154
DA:54,56
DA:56,56
DA:149,154
DA:150,154
DA:151,42
DA:153,112
DA:155,154
DA:157,42
DA:158,42
LF:26
LH:26
end_of_record
