TN:
SF:/home/kali/Desktop/laba3-3/C++/structures/arr.h
FNL:0,104,106
FNA:0,126,_ZN5ArrayINSt7__cxx1112basic_stringIcSt11char_traitsIcESaIcEEEED2Ev
FNL:1,108,110
FNA:1,56,_ZN5ArrayINSt7__cxx1112basic_stringIcSt11char_traitsIcESaIcEEEE3lenEv
FNL:2,28,38
FNA:2,28,_ZN5ArrayINSt7__cxx1112basic_stringIcSt11char_traitsIcESaIcEEEE6resizeEi
FNL:3,40,44
FNA:3,476,_ZN5ArrayINSt7__cxx1112basic_stringIcSt11char_traitsIcESaIcEEEE5checkEv
FNL:4,54,59
FNA:4,462,_ZN5ArrayINSt7__cxx1112basic_stringIcSt11char_traitsIcESaIcEEEE4pushES5_
FNL:5,61,67
FNA:5,14,_ZN5ArrayINSt7__cxx1112basic_stringIcSt11char_traitsIcESaIcEEEE3setES5_i
FNL:6,75,79
FNA:6,112,_ZN5ArrayINSt7__cxx1112basic_stringIcSt11char_traitsIcESaIcEEEEixEi
FNL:7,87,95
FNA:7,42,_ZN5ArrayINSt7__cxx1112basic_stringIcSt11char_traitsIcESaIcEEEE4findES5_
FNL:8,97,102
FNA:8,14,_ZN5ArrayINSt7__cxx1112basic_stringIcSt11char_traitsIcESaIcEEEE6removeES5_
FNF:9
FNH:9
DA:28,28
DA:29,28
DA:30,700
DA:31,364
DA:32,336
DA:33,336
DA:36,28
DA:37,28
DA:38,28
DA:40,476
DA:41,476
DA:42,28
DA:44,476
DA:54,462
DA:55,462
DA:56,462
DA:57,462
DA:58,462
DA:59,462
DA:61,14
DA:62,14
DA:63,14
DA:64,14
DA:65,14
DA:66,14
DA:67,14
DA:75,112
DA:76,112
DA:77,112
DA:78,98
DA:87,42
DA:88,182
DA:89,168
DA:90,28
DA:94,14
DA:97,14
DA:98,14
DA:99,14
DA:101,14
DA:102,14
DA:104,126
DA:105,1470
DA:106,126
DA:108,56
DA:109,56
LF:45
LH:45
end_of_record
TN:
SF:/home/kali/Desktop/laba3-3/C++/structures/hash.h
FNL:0,113,135
FNA:0,4,_ZN9HashTableINSt7__cxx1112basic_stringIcSt11char_traitsIcESaIcEEEE6RemoveES5_
FNL:1,29,36
FNA:1,3055,_ZN9HashTableINSt7__cxx1112basic_stringIcSt11char_traitsIcESaIcEEEE8hashFuncES5_
FNL:2,38,51
FNA:2,7,_ZN9HashTableINSt7__cxx1112basic_stringIcSt11char_traitsIcESaIcEEEE6ResizeEv
FNL:3,55,57
FNA:3,12,_ZN9HashTableINSt7__cxx1112basic_stringIcSt11char_traitsIcESaIcEEEED2Ev
FNL:4,59,84
FNA:4,2036,_ZN9HashTableINSt7__cxx1112basic_stringIcSt11char_traitsIcESaIcEEEE3AddES5_S5_
FNL:5,92,111
FNA:5,1015,_ZN9HashTableINSt7__cxx1112basic_stringIcSt11char_traitsIcESaIcEEEE3GetES5_
FNF:6
FNH:6
DA:29,3055
DA:30,3055
DA:31,20602
DA:32,17547
DA:33,17547
DA:35,3055
DA:38,7
DA:39,7
DA:40,7
DA:42,2039
DA:44,1023
DA:45,1016
DA:46,1016
DA:50,1030
DA:51,7
DA:55,12
DA:56,1124
DA:57,12
DA:59,2036
DA:60,2036
DA:61,2036
DA:63,2036
DA:65,477649
DA:66,477642
DA:67,2028
DA:68,2028
DA:69,2028
DA:70,2028
DA:72,475614
DA:73,1
DA:75,475613
DA:76,475613
DA:77,1092
DA:78,1092
DA:82,7
DA:83,7
DA:92,1015
DA:93,1015
DA:94,1015
DA:95,1015
DA:97,365632
DA:98,365632
DA:99,1012
DA:101,364620
DA:102,364619
DA:103,364617
DA:104,364617
DA:105,709
DA:106,709
DA:110,0
DA:113,4
DA:114,4
DA:115,4
DA:116,4
DA:118,4
DA:119,4
DA:121,3
DA:122,3
DA:123,3
DA:125,1
DA:126,1
DA:128,0
DA:129,0
DA:130,0
DA:131,0
DA:134,0
LF:66
LH:60
end_of_record
TN:
SF:/home/kali/Desktop/laba3-3/C++/structures/list.h
FNL:0,100,106
FNA:0,28,_ZN4ListINSt7__cxx1112basic_stringIcSt11char_traitsIcESaIcEEEE6removeES5_
FNL:1,108,132
FNA:1,42,_ZN4ListINSt7__cxx1112basic_stringIcSt11char_traitsIcESaIcEEEE6insertES5_i
FNL:2,151,153
FNA:2,98,_ZN4ListINSt7__cxx1112basic_stringIcSt11char_traitsIcESaIcEEEE3lenEv
FNL:3,27,36
FNA:3,14252,_ZN4ListINSt7__cxx1112basic_stringIcSt11char_traitsIcESaIcEEEE3getEi
FNL:4,40,45
FNA:4,14210,_ZN4ListINSt7__cxx1112basic_stringIcSt11char_traitsIcESaIcEEEE4pushES5_
FNL:5,47,49
FNA:5,28,_ZN4ListINSt7__cxx1112basic_stringIcSt11char_traitsIcESaIcEEEE5pushfES5_
FNL:6,51,53
FNA:6,14154,_ZN4ListINSt7__cxx1112basic_stringIcSt11char_traitsIcESaIcEEEEixEi
FNL:7,55,68
FNA:7,14,_ZN4ListINSt7__cxx1112basic_stringIcSt11char_traitsIcESaIcEEEE3popEv
FNL:8,70,79
FNA:8,70,_ZN4ListINSt7__cxx1112basic_stringIcSt11char_traitsIcESaIcEEEE4findES5_
FNL:9,81,98
FNA:9,28,_ZN4ListINSt7__cxx1112basic_stringIcSt11char_traitsIcESaIcEEEE3delEi
FNF:10
FNH:10
DA:27,14252
DA:28,14252
DA:30,14238
DA:31,7007336
DA:32,6993098
DA:33,6993098
DA:35,14238
DA:40,14210
DA:41,14210
DA:42,14210
DA:43,14210
DA:44,14210
DA:45,14210
DA:47,28
DA:48,28
DA:49,28
DA:51,14154
DA:52,14154
DA:55,14
DA:56,14
DA:58,14
DA:60,14
DA:61,14
DA:62,14
DA:64,14
DA:66,14
DA:67,14
DA:70,70
DA:72,126
DA:73,98
DA:74,42
DA:78,28
DA:81,28
DA:82,28
DA:83,28
DA:85,28
DA:86,28
DA:87,0
DA:88,0
DA:91,28
DA:92,28
DA:93,28
DA:95,28
DA:96,28
DA:98,28
DA:100,28
DA:101,28
DA:103,28
DA:105,14
DA:106,14
DA:108,42
DA:109,42
DA:111,42
DA:112,14
DA:115,28
DA:116,28
DA:117,28
DA:118,28
DA:120,42
DA:121,14
DA:122,14
DA:125,28
DA:126,28
DA:127,28
DA:128,28
DA:129,28
DA:132,42
DA:151,98
DA:152,98
LF:69
LH:67
end_of_record
TN:
SF:/home/kali/Desktop/laba3-3/C++/structures/nodes.h
FNF:0
FNH:0
LF:0
LH:0
end_of_record
TN:
SF:/home/kali/Desktop/laba3-3/C++/structures/queue.h
FNL:0,23,30
FNA:0,140,_ZN5QueueINSt7__cxx1112basic_stringIcSt11char_traitsIcESaIcEEEE4pushES5_
FNA:0,224,_ZN5QueueIPN8FullTreeINSt7__cxx1112basic_stringIcSt11char_traitsIcESaIcEEEE5NodeTEE4pushES9_
FNL:1,38,40
FNA:1,70,_ZN5QueueINSt7__cxx1112basic_stringIcSt11char_traitsIcESaIcEEEE7isEmptyEv
FNL:2,42,44
FNA:2,112,_ZN5QueueINSt7__cxx1112basic_stringIcSt11char_traitsIcESaIcEEEE5frontEv
FNL:3,46,57
FNA:3,154,_ZN5QueueINSt7__cxx1112basic_stringIcSt11char_traitsIcESaIcEEEE3popEv
FNA:3,224,_ZN5QueueIPN8FullTreeINSt7__cxx1112basic_stringIcSt11char_traitsIcESaIcEEEE5NodeTEE3popEv
FNL:4,59,61
FNA:4,84,_ZN5QueueINSt7__cxx1112basic_stringIcSt11char_traitsIcESaIcEEEED2Ev
FNA:4,112,_ZN5QueueIPN8FullTreeINSt7__cxx1112basic_stringIcSt11char_traitsIcESaIcEEEE5NodeTEED2Ev
FNL:5,63,67
FNA:5,84,_ZN5QueueINSt7__cxx1112basic_stringIcSt11char_traitsIcESaIcEEEE5clearEv
FNA:5,224,_ZN5QueueIPN8FullTreeINSt7__cxx1112basic_stringIcSt11char_traitsIcESaIcEEEE5NodeTEE5clearEv
FNL:6,69,71
FNA:6,70,_ZN5QueueINSt7__cxx1112basic_stringIcSt11char_traitsIcESaIcEEEE3lenEv
FNA:6,140,_ZN5QueueIPN8FullTreeINSt7__cxx1112basic_stringIcSt11char_traitsIcESaIcEEEE5NodeTEE3lenEv
FNF:7
FNH:7
DA:23,364
DA:24,364
DA:25,490
DA:26,126
DA:28,364
DA:29,364
DA:30,364
DA:38,70
DA:39,70
DA:42,112
DA:43,112
DA:46,378
DA:47,378
DA:49,364
DA:50,364
DA:51,364
DA:53,364
DA:55,364
DA:56,364
DA:59,196
DA:60,196
DA:61,196
DA:63,308
DA:64,420
DA:65,112
DA:67,308
DA:69,210
DA:70,210
LF:28
LH:28
end_of_record
TN:
SF:/home/kali/Desktop/laba3-3/C++/structures/stack.h
FNL:0,21,23
FNA:0,84,_ZN5StackINSt7__cxx1112basic_stringIcSt11char_traitsIcESaIcEEEE7isEmptyEv
FNL:1,31,35
FNA:1,14112,_ZN5StackINSt7__cxx1112basic_stringIcSt11char_traitsIcESaIcEEEE4pushES5_
FNL:2,37,48
FNA:2,14140,_ZN5StackINSt7__cxx1112basic_stringIcSt11char_traitsIcESaIcEEEE3popEv
FNL:3,50,52
FNA:3,112,_ZN5StackINSt7__cxx1112basic_stringIcSt11char_traitsIcESaIcEEEE3lenEv
FNL:4,54,56
FNA:4,84,_ZN5StackINSt7__cxx1112basic_stringIcSt11char_traitsIcESaIcEEEED2Ev
FNL:5,58,62
FNA:5,98,_ZN5StackINSt7__cxx1112basic_stringIcSt11char_traitsIcESaIcEEEE5clearEv
FNF:6
FNH:6
DA:21,84
DA:22,84
DA:31,14112
DA:32,14112
DA:33,14112
DA:34,14112
DA:35,14112
DA:37,14140
DA:38,14140
DA:40,14112
DA:41,14112
DA:43,14112
DA:45,14112
DA:46,14112
DA:47,14112
DA:50,112
DA:51,112
DA:54,84
DA:55,84
DA:56,84
DA:58,98
DA:59,126
DA:60,28
DA:62,98
LF:24
LH:24
end_of_record
TN:
SF:/home/kali/Desktop/laba3-3/C++/structures/timer.h
FNL:0,10,10
FNA:0,615,_ZN5Timer5startEv
FNL:1,11,18
FNA:1,615,_ZN5Timer7elapsedEv
FNF:2
FNH:2
DA:10,615
DA:11,615
DA:12,615
DA:13,615
DA:14,615
DA:15,615
DA:16,615
DA:17,615
DA:18,615
LF:9
LH:9
end_of_record
TN:
SF:/home/kali/Desktop/laba3-3/C++/structures/tree.h
FNL:0,149,155
FNA:0,154,_ZN8FullTreeINSt7__cxx1112basic_stringIcSt11char_traitsIcESaIcEEEE6insertES5_
FNL:1,157,159
FNA:1,42,_ZN8FullTreeINSt7__cxx1112basic_stringIcSt11char_traitsIcESaIcEEEE9checkFullEv
FNL:2,27,49
FNA:2,112,_ZN8FullTreeINSt7__cxx1112basic_stringIcSt11char_traitsIcESaIcEEEE12insertHelperEPNS6_5NodeTERS5_
FNL:3,51,58
FNA:3,154,_ZN8FullTreeINSt7__cxx1112basic_stringIcSt11char_traitsIcESaIcEEEE9checkNodeEPNS6_5NodeTE
FNF:4
FNH:4
DA:27,112
DA:28,112
DA:29,112
DA:30,140
DA:31,140
DA:33,140
DA:34,56
DA:35,56
DA:37,84
DA:40,84
DA:41,56
DA:42,56
DA:44,28
DA:48,112
DA:49,112
DA:51,154
DA:52,154
DA:54,56
DA:56,56
DA:149,154
DA:150,154
DA:151,42
DA:153,112
DA:155,154
DA:157,42
DA:158,42
LF:26
LH:26
end_of_record
TN:
SF:/home/kali/Desktop/laba3-3/C++/tests/test_arr.cpp
FNL:0,100,108
FNA:0,14,_ZN25ArrayTest_SetElement_Test8TestBodyEv
FNA:0,14,_ZN25ArrayTest_SetElement_TestC2Ev
FNA:0,14,_ZN25ArrayTest_SetElement_TestD0Ev
FNA:0,14,_ZN25ArrayTest_SetElement_TestD2Ev
FNL:1,15,25
FNA:1,14,_ZN19ArrayTest_Push_Test8TestBodyEv
FNA:1,14,_ZN19ArrayTest_Push_TestC2Ev
FNA:1,14,_ZN19ArrayTest_Push_TestD0Ev
FNA:1,14,_ZN19ArrayTest_Push_TestD2Ev
FNL:2,28,40
FNA:2,14,_ZN21ArrayTest_Remove_Test8TestBodyEv
FNA:2,14,_ZN21ArrayTest_Remove_TestC2Ev
FNA:2,14,_ZN21ArrayTest_Remove_TestD0Ev
FNA:2,14,_ZN21ArrayTest_Remove_TestD2Ev
FNL:3,43,52
FNA:3,14,_ZN31ArrayTest_PushResizesArray_Test8TestBodyEv
FNA:3,14,_ZN31ArrayTest_PushResizesArray_TestC2Ev
FNA:3,14,_ZN31ArrayTest_PushResizesArray_TestD0Ev
FNA:3,14,_ZN31ArrayTest_PushResizesArray_TestD2Ev
FNL:4,55,64
FNA:4,14,_ZN31ArrayTest_IndexingOperator_Test8TestBodyEv
FNA:4,14,_ZN31ArrayTest_IndexingOperator_TestC2Ev
FNA:4,14,_ZN31ArrayTest_IndexingOperator_TestD0Ev
FNA:4,14,_ZN31ArrayTest_IndexingOperator_TestD2Ev
FNL:5,6,12
FNA:5,14,_ZN33ArrayTest_ConstructorAndSize_Test8TestBodyEv
FNA:5,14,_ZN33ArrayTest_ConstructorAndSize_TestC2Ev
FNA:5,14,_ZN33ArrayTest_ConstructorAndSize_TestD0Ev
FNA:5,14,_ZN33ArrayTest_ConstructorAndSize_TestD2Ev
FNL:6,67,74
FNA:6,14,_ZN31ArrayTest_IndexOutOfBounds_Test8TestBodyEv
FNA:6,14,_ZN31ArrayTest_IndexOutOfBounds_TestC2Ev
FNA:6,14,_ZN31ArrayTest_IndexOutOfBounds_TestD0Ev
FNA:6,14,_ZN31ArrayTest_IndexOutOfBounds_TestD2Ev
FNL:7,77,84
FNA:7,14,_ZN36ArrayTest_DestructorClearsArray_Test8TestBodyEv
FNA:7,14,_ZN36ArrayTest_DestructorClearsArray_TestC2Ev
FNA:7,14,_ZN36ArrayTest_DestructorClearsArray_TestD0Ev
FNA:7,14,_ZN36ArrayTest_DestructorClearsArray_TestD2Ev
FNL:8,87,97
FNA:8,14,_ZN26ArrayTest_FindElement_Test8TestBodyEv
FNA:8,14,_ZN26ArrayTest_FindElement_TestC2Ev
FNA:8,14,_ZN26ArrayTest_FindElement_TestD0Ev
FNA:8,14,_ZN26ArrayTest_FindElement_TestD2Ev
FNF:9
FNH:9
DA:6,56
DA:7,14
DA:8,14
DA:9,14
DA:10,14
DA:11,14
DA:12,14
DA:15,56
DA:16,14
DA:17,14
DA:18,14
DA:19,28
DA:20,14
DA:21,14
DA:22,14
DA:23,14
DA:24,14
DA:25,14
DA:28,56
DA:29,14
DA:30,14
DA:31,14
DA:32,28
DA:33,28
DA:34,28
DA:35,14
DA:36,14
DA:37,14
DA:38,14
DA:39,14
DA:40,14
DA:43,56
DA:44,14
DA:45,14
DA:46,14
DA:47,294
DA:48,280
DA:50,14
DA:51,14
DA:52,14
DA:55,56
DA:56,14
DA:57,14
DA:58,14
DA:59,28
DA:60,14
DA:61,14
DA:62,14
DA:63,14
DA:64,14
DA:67,56
DA:68,14
DA:69,14
DA:70,14
DA:71,14
DA:72,14
DA:73,14
DA:74,14
DA:77,56
DA:78,14
DA:79,14
DA:80,14
DA:81,28
DA:82,14
DA:83,14
DA:84,14
DA:87,56
DA:88,14
DA:89,14
DA:90,14
DA:91,28
DA:92,28
DA:93,14
DA:94,42
DA:95,42
DA:96,14
DA:97,14
DA:100,56
DA:101,14
DA:102,14
DA:103,14
DA:104,28
DA:105,14
DA:106,14
DA:107,14
DA:108,14
LF:86
LH:86
end_of_record
TN:
SF:/home/kali/Desktop/laba3-3/C++/tests/test_hashtable.cpp
FNL:0,103,114
FNA:0,1,_ZN28HashTableTest_LargeData_Test8TestBodyEv
FNA:0,1,_ZN28HashTableTest_LargeData_TestC2Ev
FNA:0,1,_ZN28HashTableTest_LargeData_TestD0Ev
FNA:0,1,_ZN28HashTableTest_LargeData_TestD2Ev
FNL:1,117,124
FNA:1,1,_ZN29HashTableTest_EmptyValue_Test8TestBodyEv
FNA:1,1,_ZN29HashTableTest_EmptyValue_TestC2Ev
FNA:1,1,_ZN29HashTableTest_EmptyValue_TestD0Ev
FNA:1,1,_ZN29HashTableTest_EmptyValue_TestD2Ev
FNL:2,127,139
FNA:2,1,_ZN27HashTableTest_ReuseKey_Test8TestBodyEv
FNA:2,1,_ZN27HashTableTest_ReuseKey_TestC2Ev
FNA:2,1,_ZN27HashTableTest_ReuseKey_TestD0Ev
FNA:2,1,_ZN27HashTableTest_ReuseKey_TestD2Ev
FNL:3,142,153
FNA:3,1,_ZN28HashTableTest_RemoveKey_Test8TestBodyEv
FNA:3,1,_ZN28HashTableTest_RemoveKey_TestC2Ev
FNA:3,1,_ZN28HashTableTest_RemoveKey_TestD0Ev
FNA:3,1,_ZN28HashTableTest_RemoveKey_TestD2Ev
FNL:4,15,23
FNA:4,1,_ZN28HashTableTest_KeyExists_Test8TestBodyEv
FNA:4,1,_ZN28HashTableTest_KeyExists_TestC2Ev
FNA:4,1,_ZN28HashTableTest_KeyExists_TestD0Ev
FNA:4,1,_ZN28HashTableTest_KeyExists_TestD2Ev
FNL:5,25,32
FNA:5,1,_ZN28HashTableTest_NoSuchKey_Test8TestBodyEv
FNA:5,1,_ZN28HashTableTest_NoSuchKey_TestC2Ev
FNA:5,1,_ZN28HashTableTest_NoSuchKey_TestD0Ev
FNA:5,1,_ZN28HashTableTest_NoSuchKey_TestD2Ev
FNL:6,34,41
FNA:6,1,_ZN34HashTableTest_NoSuchKeyRemove_Test8TestBodyEv
FNA:6,1,_ZN34HashTableTest_NoSuchKeyRemove_TestC2Ev
FNA:6,1,_ZN34HashTableTest_NoSuchKeyRemove_TestD0Ev
FNA:6,1,_ZN34HashTableTest_NoSuchKeyRemove_TestD2Ev
FNL:7,44,56
FNA:7,1,_ZN36HashTableTest_InsertAndRetrieve_Test8TestBodyEv
FNA:7,1,_ZN36HashTableTest_InsertAndRetrieve_TestC2Ev
FNA:7,1,_ZN36HashTableTest_InsertAndRetrieve_TestD0Ev
FNA:7,1,_ZN36HashTableTest_InsertAndRetrieve_TestD2Ev
FNL:8,59,71
FNA:8,1,_ZN33HashTableTest_OverwriteValue_Test8TestBodyEv
FNA:8,1,_ZN33HashTableTest_OverwriteValue_TestC2Ev
FNA:8,1,_ZN33HashTableTest_OverwriteValue_TestD0Ev
FNA:8,1,_ZN33HashTableTest_OverwriteValue_TestD2Ev
FNL:9,6,12
FNA:9,1,_ZN40HashTableTest_ConstructorDestructor_Test8TestBodyEv
FNA:9,1,_ZN40HashTableTest_ConstructorDestructor_TestC2Ev
FNA:9,1,_ZN40HashTableTest_ConstructorDestructor_TestD0Ev
FNA:9,1,_ZN40HashTableTest_ConstructorDestructor_TestD2Ev
FNL:10,74,89
FNA:10,1,_ZN35HashTableTest_HandleCollisions_Test8TestBodyEv
FNA:10,1,_ZN35HashTableTest_HandleCollisions_TestC2Ev
FNA:10,1,_ZN35HashTableTest_HandleCollisions_TestD0Ev
FNA:10,1,_ZN35HashTableTest_HandleCollisions_TestD2Ev
FNL:11,92,100
FNA:11,1,_ZN42HashTableTest_DestructorHandlesMemory_Test8TestBodyEv
FNA:11,1,_ZN42HashTableTest_DestructorHandlesMemory_TestC2Ev
FNA:11,1,_ZN42HashTableTest_DestructorHandlesMemory_TestD0Ev
FNA:11,1,_ZN42HashTableTest_DestructorHandlesMemory_TestD2Ev
FNF:12
FNH:12
DA:6,4
DA:7,1
DA:8,1
DA:9,1
DA:10,1
DA:11,1
DA:12,1
DA:15,4
DA:16,1
DA:17,1
DA:18,1
DA:19,3
DA:20,5
DA:21,1
DA:22,1
DA:23,1
DA:25,4
DA:26,1
DA:27,1
DA:28,1
DA:29,3
DA:30,1
DA:31,1
DA:32,1
DA:34,4
DA:35,1
DA:36,1
DA:37,1
DA:38,3
DA:39,1
DA:40,1
DA:41,1
DA:44,4
DA:45,1
DA:46,1
DA:47,1
DA:48,4
DA:49,4
DA:50,2
DA:51,2
DA:54,3
DA:55,1
DA:56,1
DA:59,4
DA:60,1
DA:61,1
DA:62,1
DA:63,4
DA:64,2
DA:67,2
DA:68,4
DA:69,2
DA:70,1
DA:71,1
DA:74,4
DA:75,1
DA:76,1
DA:77,1
DA:78,2
DA:79,2
DA:82,2
DA:83,1
DA:85,1
DA:86,1
DA:87,1
DA:88,1
DA:89,1
DA:92,4
DA:93,1
DA:94,1
DA:95,1
DA:96,4
DA:97,1
DA:98,1
DA:99,1
DA:100,1
DA:103,4
DA:104,1
DA:105,1
DA:106,1
DA:107,1001
DA:108,1000
DA:110,1001
DA:111,1000
DA:113,1
DA:114,1
DA:117,4
DA:118,1
DA:119,1
DA:120,1
DA:121,4
DA:122,2
DA:123,1
DA:124,1
DA:127,4
DA:128,1
DA:129,1
DA:130,1
DA:131,4
DA:132,2
DA:135,2
DA:136,4
DA:137,2
DA:138,1
DA:139,1
DA:142,4
DA:143,1
DA:144,1
DA:145,1
DA:146,4
DA:147,2
DA:150,1
DA:151,3
DA:152,1
DA:153,1
LF:115
LH:115
end_of_record
TN:
SF:/home/kali/Desktop/laba3-3/C++/tests/test_list.cpp
FNL:0,100,107
FNA:0,14,_ZN31ListTest_OutOfBoundsAccess_Test8TestBodyEv
FNA:0,14,_ZN31ListTest_OutOfBoundsAccess_TestC2Ev
FNA:0,14,_ZN31ListTest_OutOfBoundsAccess_TestD0Ev
FNA:0,14,_ZN31ListTest_OutOfBoundsAccess_TestD2Ev
FNL:1,110,117
FNA:1,14,_ZN38ListTest_RemoveNonExistentElement_Test8TestBodyEv
FNA:1,14,_ZN38ListTest_RemoveNonExistentElement_TestC2Ev
FNA:1,14,_ZN38ListTest_RemoveNonExistentElement_TestD0Ev
FNA:1,14,_ZN38ListTest_RemoveNonExistentElement_TestD2Ev
FNL:2,120,132
FNA:2,14,_ZN23ListTest_LargeData_Test8TestBodyEv
FNA:2,14,_ZN23ListTest_LargeData_TestC2Ev
FNA:2,14,_ZN23ListTest_LargeData_TestD0Ev
FNA:2,14,_ZN23ListTest_LargeData_TestD2Ev
FNL:3,19,29
FNA:3,14,_ZN21ListTest_AddHead_Test8TestBodyEv
FNA:3,14,_ZN21ListTest_AddHead_TestC2Ev
FNA:3,14,_ZN21ListTest_AddHead_TestD0Ev
FNA:3,14,_ZN21ListTest_AddHead_TestD2Ev
FNL:4,32,42
FNA:4,14,_ZN24ListTest_RemoveTail_Test8TestBodyEv
FNA:4,14,_ZN24ListTest_RemoveTail_TestC2Ev
FNA:4,14,_ZN24ListTest_RemoveTail_TestD0Ev
FNA:4,14,_ZN24ListTest_RemoveTail_TestD2Ev
FNL:5,45,55
FNA:5,14,_ZN24ListTest_RemoveHead_Test8TestBodyEv
FNA:5,14,_ZN24ListTest_RemoveHead_TestC2Ev
FNA:5,14,_ZN24ListTest_RemoveHead_TestD0Ev
FNA:5,14,_ZN24ListTest_RemoveHead_TestD2Ev
FNL:6,58,68
FNA:6,14,_ZN27ListTest_RemoveByValue_Test8TestBodyEv
FNA:6,14,_ZN27ListTest_RemoveByValue_TestC2Ev
FNA:6,14,_ZN27ListTest_RemoveByValue_TestD0Ev
FNA:6,14,_ZN27ListTest_RemoveByValue_TestD2Ev
FNL:7,6,16
FNA:7,14,_ZN21ListTest_AddTail_Test8TestBodyEv
FNA:7,14,_ZN21ListTest_AddTail_TestC2Ev
FNA:7,14,_ZN21ListTest_AddTail_TestD0Ev
FNA:7,14,_ZN21ListTest_AddTail_TestD2Ev
FNL:8,71,81
FNA:8,14,_ZN20ListTest_Search_Test8TestBodyEv
FNA:8,14,_ZN20ListTest_Search_TestC2Ev
FNA:8,14,_ZN20ListTest_Search_TestD0Ev
FNA:8,14,_ZN20ListTest_Search_TestD2Ev
FNL:9,84,96
FNA:9,14,_ZN27ListTest_InsertAtIndex_Test8TestBodyEv
FNA:9,14,_ZN27ListTest_InsertAtIndex_TestC2Ev
FNA:9,14,_ZN27ListTest_InsertAtIndex_TestD0Ev
FNA:9,14,_ZN27ListTest_InsertAtIndex_TestD2Ev
FNF:10
FNH:10
DA:6,56
DA:7,14
DA:8,14
DA:9,14
DA:10,28
DA:11,14
DA:12,14
DA:13,14
DA:14,14
DA:15,14
DA:16,14
DA:19,56
DA:20,14
DA:21,14
DA:22,14
DA:23,28
DA:24,14
DA:25,14
DA:26,14
DA:27,14
DA:28,14
DA:29,14
DA:32,56
DA:33,14
DA:34,14
DA:35,14
DA:36,28
DA:37,14
DA:38,14
DA:39,14
DA:40,14
DA:41,14
DA:42,14
DA:45,56
DA:46,14
DA:47,14
DA:48,14
DA:49,28
DA:50,14
DA:51,14
DA:52,14
DA:53,14
DA:54,14
DA:55,14
DA:58,56
DA:59,14
DA:60,14
DA:61,14
DA:62,28
DA:63,28
DA:64,14
DA:65,14
DA:66,14
DA:67,14
DA:68,14
DA:71,56
DA:72,14
DA:73,14
DA:74,14
DA:75,28
DA:76,14
DA:77,42
DA:78,42
DA:79,42
DA:80,14
DA:81,14
DA:84,56
DA:85,14
DA:86,14
DA:87,14
DA:88,42
DA:89,28
DA:90,14
DA:91,14
DA:92,14
DA:93,14
DA:94,14
DA:95,14
DA:96,14
DA:100,56
DA:101,14
DA:102,14
DA:103,14
DA:104,14
DA:105,14
DA:106,14
DA:107,14
DA:110,56
DA:111,14
DA:112,14
DA:113,14
DA:114,14
DA:115,42
DA:116,14
DA:117,14
DA:120,56
DA:121,14
DA:122,14
DA:123,14
DA:124,14014
DA:125,14000
DA:127,14
DA:128,14014
DA:129,14000
DA:131,14
DA:132,14
LF:106
LH:106
end_of_record
TN:
SF:/home/kali/Desktop/laba3-3/C++/tests/test_queue.cpp
FNL:0,20,32
FNA:0,14,_ZN18QueueTest_Pop_Test8TestBodyEv
FNA:0,14,_ZN18QueueTest_Pop_TestC2Ev
FNA:0,14,_ZN18QueueTest_Pop_TestD0Ev
FNA:0,14,_ZN18QueueTest_Pop_TestD2Ev
FNL:1,35,41
FNA:1,14,_ZN32QueueTest_PopFromEmptyQueue_Test8TestBodyEv
FNA:1,14,_ZN32QueueTest_PopFromEmptyQueue_TestC2Ev
FNA:1,14,_ZN32QueueTest_PopFromEmptyQueue_TestD0Ev
FNA:1,14,_ZN32QueueTest_PopFromEmptyQueue_TestD2Ev
FNL:2,44,59
FNA:2,14,_ZN33QueueTest_MultiplePushAndPop_Test8TestBodyEv
FNA:2,14,_ZN33QueueTest_MultiplePushAndPop_TestC2Ev
FNA:2,14,_ZN33QueueTest_MultiplePushAndPop_TestD0Ev
FNA:2,14,_ZN33QueueTest_MultiplePushAndPop_TestD2Ev
FNL:3,6,17
FNA:3,14,_ZN27QueueTest_PushAndFront_Test8TestBodyEv
FNA:3,14,_ZN27QueueTest_PushAndFront_TestC2Ev
FNA:3,14,_ZN27QueueTest_PushAndFront_TestD0Ev
FNA:3,14,_ZN27QueueTest_PushAndFront_TestD2Ev
FNL:4,62,71
FNA:4,14,_ZN34QueueTest_QueueWithOneElement_Test8TestBodyEv
FNA:4,14,_ZN34QueueTest_QueueWithOneElement_TestC2Ev
FNA:4,14,_ZN34QueueTest_QueueWithOneElement_TestD0Ev
FNA:4,14,_ZN34QueueTest_QueueWithOneElement_TestD2Ev
FNL:5,74,88
FNA:5,14,_ZN26QueueTest_QueueLength_Test8TestBodyEv
FNA:5,14,_ZN26QueueTest_QueueLength_TestC2Ev
FNA:5,14,_ZN26QueueTest_QueueLength_TestD0Ev
FNA:5,14,_ZN26QueueTest_QueueLength_TestD2Ev
FNF:6
FNH:6
DA:6,56
DA:7,14
DA:8,14
DA:9,14
DA:10,14
DA:11,14
DA:12,14
DA:13,14
DA:14,14
DA:15,14
DA:16,14
DA:17,14
DA:20,56
DA:21,14
DA:22,14
DA:23,14
DA:24,28
DA:25,14
DA:26,14
DA:27,14
DA:28,14
DA:29,14
DA:30,14
DA:31,14
DA:32,14
DA:35,56
DA:36,14
DA:37,14
DA:38,14
DA:39,14
DA:40,14
DA:41,14
DA:44,56
DA:45,14
DA:46,14
DA:47,14
DA:48,28
DA:49,28
DA:50,14
DA:51,14
DA:52,14
DA:53,14
DA:54,14
DA:55,14
DA:56,14
DA:57,14
DA:58,14
DA:59,14
DA:62,56
DA:63,14
DA:64,14
DA:65,14
DA:66,14
DA:67,14
DA:68,14
DA:69,14
DA:70,14
DA:71,14
DA:74,56
DA:75,14
DA:76,14
DA:77,14
DA:78,14
DA:79,14
DA:80,14
DA:81,14
DA:82,14
DA:83,14
DA:84,14
DA:85,14
DA:86,14
DA:87,14
DA:88,14
LF:73
LH:73
end_of_record
TN:
SF:/home/kali/Desktop/laba3-3/C++/tests/test_stack.cpp
FNL:0,20,26
FNA:0,14,_ZN32StackTest_PopFromEmptyStack_Test8TestBodyEv
FNA:0,14,_ZN32StackTest_PopFromEmptyStack_TestC2Ev
FNA:0,14,_ZN32StackTest_PopFromEmptyStack_TestD0Ev
FNA:0,14,_ZN32StackTest_PopFromEmptyStack_TestD2Ev
FNL:1,30,43
FNA:1,14,_ZN33StackTest_MultiplePushAndPop_Test8TestBodyEv
FNA:1,14,_ZN33StackTest_MultiplePushAndPop_TestC2Ev
FNA:1,14,_ZN33StackTest_MultiplePushAndPop_TestD0Ev
FNA:1,14,_ZN33StackTest_MultiplePushAndPop_TestD2Ev
FNL:2,46,60
FNA:2,14,_ZN26StackTest_StackLength_Test8TestBodyEv
FNA:2,14,_ZN26StackTest_StackLength_TestC2Ev
FNA:2,14,_ZN26StackTest_StackLength_TestD0Ev
FNA:2,14,_ZN26StackTest_StackLength_TestD2Ev
FNL:3,6,17
FNA:3,14,_ZN25StackTest_PushAndPop_Test8TestBodyEv
FNA:3,14,_ZN25StackTest_PushAndPop_TestC2Ev
FNA:3,14,_ZN25StackTest_PushAndPop_TestD0Ev
FNA:3,14,_ZN25StackTest_PushAndPop_TestD2Ev
FNL:4,63,73
FNA:4,14,_ZN25StackTest_ClearStack_Test8TestBodyEv
FNA:4,14,_ZN25StackTest_ClearStack_TestC2Ev
FNA:4,14,_ZN25StackTest_ClearStack_TestD0Ev
FNA:4,14,_ZN25StackTest_ClearStack_TestD2Ev
FNL:5,76,89
FNA:5,14,_ZN24StackTest_LargeData_Test8TestBodyEv
FNA:5,14,_ZN24StackTest_LargeData_TestC2Ev
FNA:5,14,_ZN24StackTest_LargeData_TestD0Ev
FNA:5,14,_ZN24StackTest_LargeData_TestD2Ev
FNF:6
FNH:6
DA:6,56
DA:7,14
DA:8,14
DA:9,14
DA:10,14
DA:11,14
DA:12,14
DA:13,14
DA:14,14
DA:15,14
DA:16,14
DA:17,14
DA:20,56
DA:21,14
DA:22,14
DA:23,14
DA:24,14
DA:25,14
DA:26,14
DA:30,56
DA:31,14
DA:32,14
DA:33,14
DA:34,28
DA:35,28
DA:36,14
DA:37,14
DA:38,14
DA:39,14
DA:40,14
DA:41,14
DA:42,14
DA:43,14
DA:46,56
DA:47,14
DA:48,14
DA:49,14
DA:50,14
DA:51,14
DA:52,14
DA:53,14
DA:54,14
DA:55,14
DA:56,14
DA:57,14
DA:58,14
DA:59,14
DA:60,14
DA:63,56
DA:64,14
DA:65,14
DA:66,14
DA:67,28
DA:68,14
DA:69,14
DA:70,14
DA:71,14
DA:72,14
DA:73,14
DA:76,56
DA:77,14
DA:78,14
DA:79,14
DA:80,14014
DA:81,14000
DA:83,14
DA:84,14014
DA:85,14000
DA:87,14
DA:88,14
DA:89,14
LF:71
LH:71
end_of_record
TN:
SF:/home/kali/Desktop/laba3-3/C++/tests/test_tree.cpp
FNL:0,18,27
FNA:0,14,_ZN31FullTreeTest_CheckFullTree_Test8TestBodyEv
FNA:0,14,_ZN31FullTreeTest_CheckFullTree_TestC2Ev
FNA:0,14,_ZN31FullTreeTest_CheckFullTree_TestD0Ev
FNA:0,14,_ZN31FullTreeTest_CheckFullTree_TestD2Ev
FNL:1,30,42
FNA:1,14,_ZN40FullTreeTest_BalanceAfterInsertions_Test8TestBodyEv
FNA:1,14,_ZN40FullTreeTest_BalanceAfterInsertions_TestC2Ev
FNA:1,14,_ZN40FullTreeTest_BalanceAfterInsertions_TestD0Ev
FNA:1,14,_ZN40FullTreeTest_BalanceAfterInsertions_TestD2Ev
FNL:2,6,15
FNA:2,14,_ZN31FullTreeTest_InsertAndFind_Test8TestBodyEv
FNA:2,14,_ZN31FullTreeTest_InsertAndFind_TestC2Ev
FNA:2,14,_ZN31FullTreeTest_InsertAndFind_TestD0Ev
FNA:2,14,_ZN31FullTreeTest_InsertAndFind_TestD2Ev
FNF:3
FNH:3
DA:6,56
DA:7,14
DA:8,14
DA:9,14
DA:10,28
DA:11,28
DA:12,14
DA:13,14
DA:14,14
DA:15,14
DA:18,56
DA:19,14
DA:20,14
DA:21,14
DA:22,28
DA:23,28
DA:24,14
DA:25,14
DA:26,14
DA:27,14
DA:30,56
DA:31,14
DA:32,14
DA:33,14
DA:34,28
DA:35,28
DA:36,28
DA:37,28
DA:38,14
DA:40,14
DA:41,14
DA:42,14
LF:32
LH:32
end_of_record
TN:
SF:/usr/include/c++/13/bits/allocator.h
FNF:0
FNH:0
DA:163,154
DA:184,154
LF:2
LH:2
end_of_record
TN:
SF:/usr/include/c++/13/bits/basic_string.h
FNL:0,3674,3676
FNA:0,112280,_ZStplIcSt11char_traitsIcESaIcEENSt7__cxx1112basic_stringIT_T0_T1_EEPKS5_OS8_
FNL:1,3710,3716
FNA:1,16924389,_ZSteqIcSt11char_traitsIcESaIcEEbRKNSt7__cxx1112basic_stringIT_T0_T1_EESA_
FNL:2,3727,3732
FNA:2,546,_ZSteqIcSt11char_traitsIcESaIcEEbRKNSt7__cxx1112basic_stringIT_T0_T1_EEPKS5_
FNL:3,3788,3791
FNA:3,1,_ZStneIcSt11char_traitsIcESaIcEEbRKNSt7__cxx1112basic_stringIT_T0_T1_EESA_
FNL:4,4162,4173
FNA:4,112280,_ZNSt7__cxx119to_stringEi
FNL:5,641,650
FNA:5,2706,_ZNSt7__cxx1112basic_stringIcSt11char_traitsIcESaIcEEC2IS3_EEPKcRKS3_
FNL:6,664,666
FNA:6,112280,_ZNSt7__cxx1112basic_stringIcSt11char_traitsIcESaIcEEC2IS3_EEmcRKS3_
FNF:7
FNH:7
DA:355,0
DA:641,2706
DA:642,2706
DA:645,2706
DA:646,0
DA:648,2706
DA:649,2706
DA:650,2706
DA:664,112280
DA:665,112280
DA:666,112280
DA:3674,112280
DA:3676,112280
DA:3710,16924389
DA:3714,16924389
DA:3715,16924389
DA:3727,546
DA:3730,546
DA:3731,546
DA:3788,1
DA:3791,1
DA:4162,112280
DA:4167,112280
DA:4168,112280
DA:4169,112280
DA:4170,112280
DA:4171,112280
DA:4172,112280
LF:28
LH:26
end_of_record
TN:
SF:/usr/include/c++/13/bits/basic_string.tcc
FNL:0,221,252
FNA:0,2706,_ZNSt7__cxx1112basic_stringIcSt11char_traitsIcESaIcEE12_M_constructIPKcEEvT_S8_St20forward_iterator_tag
FNA:0,0,_ZNSt7__cxx1112basic_stringIcSt11char_traitsIcESaIcEE12_M_constructIPcEEvT_S7_St20forward_iterator_tag
FNL:1,239,239
FNA:1,2706,_ZZNSt7__cxx1112basic_stringIcSt11char_traitsIcESaIcEE12_M_constructIPKcEEvT_S8_St20forward_iterator_tagEN6_GuardC2EPS4_
FNA:1,0,_ZZNSt7__cxx1112basic_stringIcSt11char_traitsIcESaIcEE12_M_constructIPcEEvT_S7_St20forward_iterator_tagEN6_GuardC2EPS4_
FNL:2,242,242
FNA:2,2706,_ZZNSt7__cxx1112basic_stringIcSt11char_traitsIcESaIcEE12_M_constructIPKcEEvT_S8_St20forward_iterator_tagEN6_GuardD2Ev
FNA:2,0,_ZZNSt7__cxx1112basic_stringIcSt11char_traitsIcESaIcEE12_M_constructIPcEEvT_S7_St20forward_iterator_tagEN6_GuardD2Ev
FNF:3
FNH:3
DA:221,2706
DA:225,2706
DA:227,2706
DA:229,615
DA:230,615
DA:239,2706
DA:242,2706
DA:245,2706
DA:247,2706
DA:249,2706
DA:251,2706
DA:252,2706
LF:12
LH:12
end_of_record
TN:
SF:/usr/include/c++/13/bits/char_traits.h
FNL:0,136,137
FNA:0,0,_ZN9__gnu_cxx11char_traitsIcE2eqERKcS3_
FNL:1,199,206
FNA:1,0,_ZN9__gnu_cxx11char_traitsIcE6lengthEPKc
FNL:2,366,371
FNA:2,0,_ZNSt11char_traitsIcE2ltERKcS2_
FNL:3,374,390
FNA:3,16165835,_ZNSt11char_traitsIcE7compareEPKcS2_m
FNL:4,393,400
FNA:4,3252,_ZNSt11char_traitsIcE6lengthEPKc
FNL:5,427,436
FNA:5,0,_ZNSt11char_traitsIcE4copyEPcPKcm
FNF:6
FNH:2
DA:136,0
DA:137,0
DA:199,0
DA:202,0
DA:203,0
DA:204,0
DA:205,0
DA:366,0
DA:369,0
DA:370,0
DA:374,16165835
DA:376,16165835
DA:377,14
DA:379,16165821
DA:381,0
DA:382,0
DA:383,0
DA:384,0
DA:385,0
DA:386,0
DA:389,16165821
DA:393,3252
DA:396,3252
DA:397,0
DA:399,3252
DA:427,0
DA:429,0
DA:430,0
DA:435,0
LF:29
LH:8
end_of_record
TN:
SF:/usr/include/c++/13/bits/charconv.h
FNL:0,55,74
FNA:0,112280,_ZNSt8__detail14__to_chars_lenIjEEjT_i
FNL:1,81,110
FNA:1,112280,_ZNSt8__detail18__to_chars_10_implIjEEvPcjT_
FNF:2
FNH:2
DA:55,112280
DA:61,112280
DA:62,112280
DA:63,112280
DA:64,112280
DA:67,112280
DA:68,111020
DA:69,100800
DA:70,0
DA:71,0
DA:72,0
DA:81,112280
DA:87,112280
DA:93,112280
DA:94,213080
DA:96,100800
DA:97,100800
DA:98,100800
DA:99,100800
DA:100,100800
DA:102,112280
DA:104,10220
DA:105,10220
DA:106,10220
DA:109,102060
DA:110,112280
LF:26
LH:23
end_of_record
TN:
SF:/usr/include/c++/13/bits/chrono.h
FNL:0,1141,1143
FNA:0,615,_ZNSt6chronomiINS_3_V212system_clockENS_8durationIlSt5ratioILl1ELl1000000000EEEES6_EENSt11common_typeIJT0_T1_EE4typeERKNS_10time_pointIT_S8_EERKNSC_ISD_S9_EE
FNL:1,208,213
FNA:1,615,_ZNSt6chrono20__duration_cast_implINS_8durationIdSt5ratioILl1ELl1EEEES2_ILl1ELl1000000000EEdLb1ELb0EE6__castIlS5_EES4_RKNS1_IT_T0_EE
FNL:2,273,291
FNA:2,615,_ZNSt6chrono13duration_castINS_8durationIdSt5ratioILl1ELl1EEEElS2_ILl1ELl1000000000EEEENSt9enable_ifIXsrNS_13__is_durationIT_EE5valueES8_E4typeERKNS1_IT0_T1_EE
FNL:3,573,574
FNA:3,615,_ZNSt6chrono8durationIdSt5ratioILl1ELl1EEEC2IdvEERKT_
FNA:3,615,_ZNSt6chrono8durationIlSt5ratioILl1ELl1000000000EEEC1IlvEERKT_
FNL:4,589,590
FNA:4,615,_ZNKSt6chrono8durationIdSt5ratioILl1ELl1EEE5countEv
FNA:4,1845,_ZNKSt6chrono8durationIlSt5ratioILl1ELl1000000000EEE5countEv
FNL:5,710,717
FNA:5,615,_ZNSt6chronomiIlSt5ratioILl1ELl1000000000EElS2_EENSt11common_typeIJNS_8durationIT_T0_EENS4_IT1_T2_EEEE4typeERKS7_RKSA_
FNL:6,949,950
FNA:6,1230,_ZNKSt6chrono10time_pointINS_3_V212system_clockENS_8durationIlSt5ratioILl1ELl1000000000EEEEE16time_since_epochEv
FNF:7
FNH:7
DA:208,615
DA:211,1230
DA:212,615
DA:273,615
DA:287,615
DA:573,1230
DA:574,1230
DA:589,2460
DA:590,2460
DA:710,615
DA:716,615
DA:949,1230
DA:950,1230
DA:1141,615
DA:1143,615
LF:15
LH:15
end_of_record
TN:
SF:/usr/include/c++/13/bits/ios_base.h
FNL:0,103,104
FNA:0,615,_ZStaNRSt13_Ios_FmtflagsS_
FNL:1,1084,1088
FNA:1,615,_ZSt5fixedRSt8ios_base
FNL:2,706,712
FNA:2,615,_ZNSt8ios_base4setfESt13_Ios_FmtflagsS0_
FNL:3,83,84
FNA:3,1230,_ZStanSt13_Ios_FmtflagsS_
FNL:4,87,88
FNA:4,615,_ZStorSt13_Ios_FmtflagsS_
FNL:5,95,96
FNA:5,615,_ZStcoSt13_Ios_Fmtflags
FNL:6,99,100
FNA:6,615,_ZStoRRSt13_Ios_FmtflagsS_
FNF:7
FNH:7
DA:83,1230
DA:84,1230
DA:87,615
DA:88,615
DA:95,615
DA:96,615
DA:99,615
DA:100,615
DA:103,615
DA:104,615
DA:706,615
DA:708,615
DA:709,615
DA:710,615
DA:711,615
DA:1084,615
DA:1086,615
DA:1087,615
LF:18
LH:18
end_of_record
TN:
SF:/usr/include/c++/13/bits/move.h
FNL:0,70,71
FNA:0,0,_ZSt7forwardISt14default_deleteINSt7__cxx1112basic_stringIcSt11char_traitsIcESaIcEEEEEOT_RNSt16remove_referenceIS8_E4typeE
FNL:1,97,98
FNA:1,112895,_ZSt4moveIRNSt7__cxx1112basic_stringIcSt11char_traitsIcESaIcEEEEONSt16remove_referenceIT_E4typeEOS8_
FNA:1,0,_ZSt4moveIRPNSt7__cxx1112basic_stringIcSt11char_traitsIcESaIcEEEEONSt16remove_referenceIT_E4typeEOS9_
FNA:1,41,_ZSt4moveIRPNSt7__cxx1118basic_stringstreamIcSt11char_traitsIcESaIcEEEEONSt16remove_referenceIT_E4typeEOS9_
FNA:1,0,_ZSt4moveIRSaIcEEONSt16remove_referenceIT_E4typeEOS3_
FNF:2
FNH:1
DA:70,0
DA:71,0
DA:97,112936
DA:98,112936
LF:4
LH:2
end_of_record
TN:
SF:/usr/include/c++/13/bits/new_allocator.h
FNL:0,104,104
FNA:0,114986,_ZNSt15__new_allocatorIcED2Ev
FNF:1
FNH:1
DA:88,154
DA:104,114986
LF:2
LH:2
end_of_record
TN:
SF:/usr/include/c++/13/bits/stl_iterator_base_funcs.h
FNF:0
FNH:0
DA:106,0
DA:151,0
DA:152,0
LF:3
LH:0
end_of_record
TN:
SF:/usr/include/c++/13/bits/stl_iterator_base_types.h
FNF:0
FNH:0
DA:240,0
LF:1
LH:0
end_of_record
TN:
SF:/usr/include/c++/13/bits/unique_ptr.h
FNL:0,1069,1070
FNA:0,0,_ZSt11make_uniqueINSt7__cxx1112basic_stringIcSt11char_traitsIcESaIcEEEJEENSt8__detail9_MakeUniqIT_E15__single_objectEDpOT0_
FNL:1,174,174
FNA:1,196,_ZNSt15__uniq_ptr_implINSt7__cxx1112basic_stringIcSt11char_traitsIcESaIcEEESt14default_deleteIS5_EEC2Ev
FNL:2,176,176
FNA:2,0,_ZNSt15__uniq_ptr_implINSt7__cxx1112basic_stringIcSt11char_traitsIcESaIcEEESt14default_deleteIS5_EEC2EPS5_
FNL:3,189,194
FNA:3,0,_ZNSt15__uniq_ptr_implINSt7__cxx1112basic_stringIcSt11char_traitsIcESaIcEEESt14default_deleteIS5_EEaSEOS8_
FNL:4,197,197
FNA:4,43162,_ZNSt15__uniq_ptr_implINSt7__cxx1112basic_stringIcSt11char_traitsIcESaIcEEESt14default_deleteIS5_EE6_M_ptrEv
FNA:4,41,_ZNSt15__uniq_ptr_implINSt7__cxx1118basic_stringstreamIcSt11char_traitsIcESaIcEEESt14default_deleteIS5_EE6_M_ptrEv
FNL:5,199,199
FNA:5,0,_ZNKSt15__uniq_ptr_implINSt7__cxx1112basic_stringIcSt11char_traitsIcESaIcEEESt14default_deleteIS5_EE6_M_ptrEv
FNA:5,0,_ZNKSt15__uniq_ptr_implINSt7__cxx1118basic_stringstreamIcSt11char_traitsIcESaIcEEESt14default_deleteIS5_EE6_M_ptrEv
FNL:6,201,201
FNA:6,0,_ZNSt15__uniq_ptr_implINSt7__cxx1112basic_stringIcSt11char_traitsIcESaIcEEESt14default_deleteIS5_EE10_M_deleterEv
FNA:6,41,_ZNSt15__uniq_ptr_implINSt7__cxx1118basic_stringstreamIcSt11char_traitsIcESaIcEEESt14default_deleteIS5_EE10_M_deleterEv
FNL:7,206,212
FNA:7,0,_ZNSt15__uniq_ptr_implINSt7__cxx1112basic_stringIcSt11char_traitsIcESaIcEEESt14default_deleteIS5_EE5resetEPS5_
FNL:8,215,220
FNA:8,0,_ZNSt15__uniq_ptr_implINSt7__cxx1112basic_stringIcSt11char_traitsIcESaIcEEESt14default_deleteIS5_EE7releaseEv
FNL:9,243,243
FNA:9,0,_ZNSt15__uniq_ptr_dataINSt7__cxx1112basic_stringIcSt11char_traitsIcESaIcEEESt14default_deleteIS5_ELb1ELb1EEaSEOS8_
FNL:10,304,306
FNA:10,196,_ZNSt10unique_ptrINSt7__cxx1112basic_stringIcSt11char_traitsIcESaIcEEESt14default_deleteIS5_EEC2IS7_vEEv
FNL:11,317,319
FNA:11,0,_ZNSt10unique_ptrINSt7__cxx1112basic_stringIcSt11char_traitsIcESaIcEEESt14default_deleteIS5_EEC2IS7_vEEPS5_
FNL:12,398,406
FNA:12,43162,_ZNSt10unique_ptrINSt7__cxx1112basic_stringIcSt11char_traitsIcESaIcEEESt14default_deleteIS5_EED2Ev
FNA:12,41,_ZNSt10unique_ptrINSt7__cxx1118basic_stringstreamIcSt11char_traitsIcESaIcEEESt14default_deleteIS5_EED2Ev
FNL:13,414,414
FNA:13,0,_ZNSt10unique_ptrINSt7__cxx1112basic_stringIcSt11char_traitsIcESaIcEEESt14default_deleteIS5_EEaSEOS8_
FNL:14,451,455
FNA:14,0,_ZNKSt10unique_ptrINSt7__cxx1118basic_stringstreamIcSt11char_traitsIcESaIcEEESt14default_deleteIS5_EEdeEv
FNL:15,460,464
FNA:15,0,_ZNKSt10unique_ptrINSt7__cxx1112basic_stringIcSt11char_traitsIcESaIcEEESt14default_deleteIS5_EEptEv
FNL:16,469,470
FNA:16,0,_ZNKSt10unique_ptrINSt7__cxx1112basic_stringIcSt11char_traitsIcESaIcEEESt14default_deleteIS5_EE3getEv
FNA:16,0,_ZNKSt10unique_ptrINSt7__cxx1118basic_stringstreamIcSt11char_traitsIcESaIcEEESt14default_deleteIS5_EE3getEv
FNL:17,475,476
FNA:17,0,_ZNSt10unique_ptrINSt7__cxx1112basic_stringIcSt11char_traitsIcESaIcEEESt14default_deleteIS5_EE11get_deleterEv
FNA:17,41,_ZNSt10unique_ptrINSt7__cxx1118basic_stringstreamIcSt11char_traitsIcESaIcEEESt14default_deleteIS5_EE11get_deleterEv
FNL:18,486,487
FNA:18,0,_ZNKSt10unique_ptrINSt7__cxx1112basic_stringIcSt11char_traitsIcESaIcEEESt14default_deleteIS5_EEcvbEv
FNL:19,837,838
FNA:19,0,_ZSteqINSt7__cxx1112basic_stringIcSt11char_traitsIcESaIcEEESt14default_deleteIS5_EEbRKSt10unique_ptrIT_T0_EDn
FNL:20,861,862
FNA:20,0,_ZStneINSt7__cxx1112basic_stringIcSt11char_traitsIcESaIcEEESt14default_deleteIS5_EEbRKSt10unique_ptrIT_T0_EDn
FNL:21,93,100
FNA:21,0,_ZNKSt14default_deleteINSt7__cxx1112basic_stringIcSt11char_traitsIcESaIcEEEEclEPS5_
FNA:21,41,_ZNKSt14default_deleteINSt7__cxx1118basic_stringstreamIcSt11char_traitsIcESaIcEEEEclEPS5_
FNF:22
FNH:7
DA:93,41
DA:99,41
DA:100,41
DA:174,196
DA:176,0
DA:189,0
DA:191,0
DA:192,0
DA:193,0
DA:197,43203
DA:199,0
DA:201,41
DA:206,0
DA:208,0
DA:209,0
DA:210,0
DA:211,0
DA:212,0
DA:215,0
DA:217,0
DA:218,0
DA:219,0
DA:243,0
DA:304,196
DA:305,196
DA:306,196
DA:317,0
DA:318,0
DA:319,0
DA:398,43203
DA:402,43203
DA:403,43203
DA:404,41
DA:405,43203
DA:406,43203
DA:414,0
DA:451,0
DA:453,0
DA:454,0
DA:460,0
DA:463,0
DA:469,0
DA:470,0
DA:475,41
DA:476,41
DA:486,0
DA:487,0
DA:837,0
DA:838,0
DA:861,0
DA:862,0
DA:1069,0
DA:1070,0
LF:53
LH:17
end_of_record
TN:
SF:/usr/include/c++/13/iomanip
FNL:0,197,198
FNA:0,615,_ZSt12setprecisioni
FNF:1
FNH:1
DA:197,615
DA:198,615
LF:2
LH:2
end_of_record
TN:
SF:/usr/include/c++/13/tuple
FNL:0,125,125
FNA:0,0,_ZNSt10_Head_baseILm1ESt14default_deleteINSt7__cxx1112basic_stringIcSt11char_traitsIcESaIcEEEELb1EE7_M_headERS8_
FNA:0,41,_ZNSt10_Head_baseILm1ESt14default_deleteINSt7__cxx1118basic_stringstreamIcSt11char_traitsIcESaIcEEEELb1EE7_M_headERS8_
FNL:1,1317,1319
FNA:1,14,_ZNSt5tupleIJPNSt7__cxx1112basic_stringIcSt11char_traitsIcESaIcEEESt14default_deleteIS5_EEEC2ILb1ELb1EEEv
FNL:2,1787,1788
FNA:2,43162,_ZSt12__get_helperILm0EPNSt7__cxx1112basic_stringIcSt11char_traitsIcESaIcEEEJSt14default_deleteIS5_EEERT0_RSt11_Tuple_implIXT_EJS9_DpT1_EE
FNA:2,41,_ZSt12__get_helperILm0EPNSt7__cxx1118basic_stringstreamIcSt11char_traitsIcESaIcEEEJSt14default_deleteIS5_EEERT0_RSt11_Tuple_implIXT_EJS9_DpT1_EE
FNA:2,0,_ZSt12__get_helperILm1ESt14default_deleteINSt7__cxx1112basic_stringIcSt11char_traitsIcESaIcEEEEJEERT0_RSt11_Tuple_implIXT_EJS8_DpT1_EE
FNA:2,41,_ZSt12__get_helperILm1ESt14default_deleteINSt7__cxx1118basic_stringstreamIcSt11char_traitsIcESaIcEEEEJEERT0_RSt11_Tuple_implIXT_EJS8_DpT1_EE
FNL:3,1792,1793
FNA:3,0,_ZSt12__get_helperILm0EPNSt7__cxx1112basic_stringIcSt11char_traitsIcESaIcEEEJSt14default_deleteIS5_EEERKT0_RKSt11_Tuple_implIXT_EJS9_DpT1_EE
FNA:3,0,_ZSt12__get_helperILm0EPNSt7__cxx1118basic_stringstreamIcSt11char_traitsIcESaIcEEEJSt14default_deleteIS5_EEERKT0_RKSt11_Tuple_implIXT_EJS9_DpT1_EE
FNL:4,1803,1804
FNA:4,43162,_ZSt3getILm0EJPNSt7__cxx1112basic_stringIcSt11char_traitsIcESaIcEEESt14default_deleteIS5_EEERNSt13tuple_elementIXT_ESt5tupleIJDpT0_EEE4typeERSD_
FNA:4,41,_ZSt3getILm0EJPNSt7__cxx1118basic_stringstreamIcSt11char_traitsIcESaIcEEESt14default_deleteIS5_EEERNSt13tuple_elementIXT_ESt5tupleIJDpT0_EEE4typeERSD_
FNA:4,0,_ZSt3getILm1EJPNSt7__cxx1112basic_stringIcSt11char_traitsIcESaIcEEESt14default_deleteIS5_EEERNSt13tuple_elementIXT_ESt5tupleIJDpT0_EEE4typeERSD_
FNA:4,41,_ZSt3getILm1EJPNSt7__cxx1118basic_stringstreamIcSt11char_traitsIcESaIcEEESt14default_deleteIS5_EEERNSt13tuple_elementIXT_ESt5tupleIJDpT0_EEE4typeERSD_
FNL:5,1809,1810
FNA:5,0,_ZSt3getILm0EJPNSt7__cxx1112basic_stringIcSt11char_traitsIcESaIcEEESt14default_deleteIS5_EEERKNSt13tuple_elementIXT_ESt5tupleIJDpT0_EEE4typeERKSD_
FNA:5,0,_ZSt3getILm0EJPNSt7__cxx1118basic_stringstreamIcSt11char_traitsIcESaIcEEESt14default_deleteIS5_EEERKNSt13tuple_elementIXT_ESt5tupleIJDpT0_EEE4typeERKSD_
FNL:6,190,191
FNA:6,14,_ZNSt10_Head_baseILm0EPNSt7__cxx1112basic_stringIcSt11char_traitsIcESaIcEEELb0EEC2Ev
FNL:7,234,234
FNA:7,43162,_ZNSt10_Head_baseILm0EPNSt7__cxx1112basic_stringIcSt11char_traitsIcESaIcEEELb0EE7_M_headERS7_
FNA:7,41,_ZNSt10_Head_baseILm0EPNSt7__cxx1118basic_stringstreamIcSt11char_traitsIcESaIcEEELb0EE7_M_headERS7_
FNL:8,237,237
FNA:8,0,_ZNSt10_Head_baseILm0EPNSt7__cxx1112basic_stringIcSt11char_traitsIcESaIcEEELb0EE7_M_headERKS7_
FNA:8,0,_ZNSt10_Head_baseILm0EPNSt7__cxx1118basic_stringstreamIcSt11char_traitsIcESaIcEEELb0EE7_M_headERKS7_
FNL:9,269,269
FNA:9,43162,_ZNSt11_Tuple_implILm0EJPNSt7__cxx1112basic_stringIcSt11char_traitsIcESaIcEEESt14default_deleteIS5_EEE7_M_headERS9_
FNA:9,41,_ZNSt11_Tuple_implILm0EJPNSt7__cxx1118basic_stringstreamIcSt11char_traitsIcESaIcEEESt14default_deleteIS5_EEE7_M_headERS9_
FNL:10,272,272
FNA:10,0,_ZNSt11_Tuple_implILm0EJPNSt7__cxx1112basic_stringIcSt11char_traitsIcESaIcEEESt14default_deleteIS5_EEE7_M_headERKS9_
FNA:10,0,_ZNSt11_Tuple_implILm0EJPNSt7__cxx1118basic_stringstreamIcSt11char_traitsIcESaIcEEESt14default_deleteIS5_EEE7_M_headERKS9_
FNL:11,280,281
FNA:11,14,_ZNSt11_Tuple_implILm0EJPNSt7__cxx1112basic_stringIcSt11char_traitsIcESaIcEEESt14default_deleteIS5_EEEC2Ev
FNL:12,497,497
FNA:12,0,_ZNSt11_Tuple_implILm1EJSt14default_deleteINSt7__cxx1112basic_stringIcSt11char_traitsIcESaIcEEEEEE7_M_headERS8_
FNA:12,41,_ZNSt11_Tuple_implILm1EJSt14default_deleteINSt7__cxx1118basic_stringstreamIcSt11char_traitsIcESaIcEEEEEE7_M_headERS8_
FNL:13,503,504
FNA:13,14,_ZNSt11_Tuple_implILm1EJSt14default_deleteINSt7__cxx1112basic_stringIcSt11char_traitsIcESaIcEEEEEEC2Ev
FNL:14,81,82
FNA:14,14,_ZNSt10_Head_baseILm1ESt14default_deleteINSt7__cxx1112basic_stringIcSt11char_traitsIcESaIcEEEELb1EEC2Ev
FNF:15
FNH:11
DA:81,14
DA:82,14
DA:125,41
DA:190,14
DA:191,14
DA:234,43203
DA:237,0
DA:269,43203
DA:272,0
DA:280,14
DA:281,14
DA:497,41
DA:503,14
DA:504,14
DA:1317,14
DA:1319,14
DA:1787,43244
DA:1788,43244
DA:1792,0
DA:1793,0
DA:1803,43244
DA:1804,43244
DA:1809,0
DA:1810,0
LF:24
LH:18
end_of_record
TN:
SF:/usr/include/c++/13/typeinfo
FNL:0,103,104
FNA:0,0,_ZNKSt9type_info4nameEv
FNF:1
FNH:0
DA:103,0
DA:104,0
LF:2
LH:0
end_of_record
TN:
SF:/usr/include/gtest/gtest-assertion-result.h
FNL:0,155,161
FNA:0,196,_ZN7testing15AssertionResultC2IbEERKT_PNSt9enable_ifIXntsrSt14is_convertibleIS2_S0_E5valueEvE4typeE
FNL:1,174,174
FNA:1,43162,_ZNK7testing15AssertionResultcvbEv
FNL:2,183,185
FNA:2,0,_ZNK7testing15AssertionResult7messageEv
FNL:3,187,187
FNA:3,0,_ZNK7testing15AssertionResult15failure_messageEv
FNL:4,191,194
FNA:4,0,_ZN7testing15AssertionResultlsIA12_cEERS0_RKT_
FNA:4,0,_ZN7testing15AssertionResultlsIA3_cEERS0_RKT_
FNA:4,0,_ZN7testing15AssertionResultlsIA5_cEERS0_RKT_
FNA:4,0,_ZN7testing15AssertionResultlsINSt7__cxx1112basic_stringIcSt11char_traitsIcESaIcEEEEERS0_RKT_
FNA:4,0,_ZN7testing15AssertionResultlsIPKcEERS0_RKT_
FNL:5,206,209
FNA:5,0,_ZN7testing15AssertionResult13AppendMessageERKNS_7MessageE
FNF:6
FNH:2
DA:155,196
DA:161,196
DA:174,43162
DA:183,0
DA:184,0
DA:187,0
DA:191,0
DA:192,0
DA:193,0
DA:206,0
DA:207,0
DA:208,0
DA:209,0
LF:13
LH:3
end_of_record
TN:
SF:/usr/include/gtest/gtest-message.h
FNL:0,132,150
FNA:0,0,_ZN7testing7MessagelsIA12_cEERS0_RKT_
FNA:0,0,_ZN7testing7MessagelsIA3_cEERS0_RKT_
FNA:0,0,_ZN7testing7MessagelsIA5_cEERS0_RKT_
FNA:0,0,_ZN7testing7MessagelsINSt7__cxx1112basic_stringIcSt11char_traitsIcESaIcEEEEERS0_RKT_
FNL:1,181,188
FNA:1,0,_ZN7testing7MessagelsIKcEERS0_RKPT_
FNF:2
FNH:0
DA:132,0
DA:148,0
DA:149,0
DA:181,0
DA:182,0
DA:183,0
DA:185,0
DA:187,0
LF:8
LH:0
end_of_record
TN:
SF:/usr/include/gtest/gtest-printers.h
FNL:0,1025,1027
FNA:0,0,_ZN7testing8internal21UniversalTersePrinterINSt7__cxx1112basic_stringIcSt11char_traitsIcESaIcEEEE5PrintERKS7_PSo
FNA:0,0,_ZN7testing8internal21UniversalTersePrinterIiE5PrintERKiPSo
FNL:1,1053,1059
FNA:1,0,_ZN7testing8internal21UniversalTersePrinterIPKcE5PrintES3_PSo
FNL:2,1144,1149
FNA:2,0,_ZN7testing8internal14UniversalPrintINSt7__cxx1112basic_stringIcSt11char_traitsIcESaIcEEEEEvRKT_PSo
FNA:2,0,_ZN7testing8internal14UniversalPrintIiEEvRKT_PSo
FNL:3,1184,1188
FNA:3,0,_ZN7testing13PrintToStringINSt7__cxx1112basic_stringIcSt11char_traitsIcESaIcEEEEES6_RKT_
FNA:3,0,_ZN7testing13PrintToStringIPKcEENSt7__cxx1112basic_stringIcSt11char_traitsIcESaIcEEERKT_
FNA:3,0,_ZN7testing13PrintToStringIiEENSt7__cxx1112basic_stringIcSt11char_traitsIcESaIcEEERKT_
FNL:4,244,249
FNA:4,0,_ZN7testing8internal52internal_stream_operator_without_lexical_name_lookup13StreamPrinter10PrintValueIivEEDTcvvlsdefp0_fp_ERKT_PSo
FNL:5,348,359
FNA:5,0,_ZN7testing8internal17PrintWithFallbackIiEEvRKT_PSo
FNL:6,379,381
FNA:6,0,_ZN7testing8internal19FormatForComparisonINSt7__cxx1112basic_stringIcSt11char_traitsIcESaIcEEEA10_cE6FormatERKS7_
FNA:6,0,_ZN7testing8internal19FormatForComparisonINSt7__cxx1112basic_stringIcSt11char_traitsIcESaIcEEEA12_cE6FormatERKS7_
FNA:6,0,_ZN7testing8internal19FormatForComparisonINSt7__cxx1112basic_stringIcSt11char_traitsIcESaIcEEEA16_cE6FormatERKS7_
FNA:6,0,_ZN7testing8internal19FormatForComparisonINSt7__cxx1112basic_stringIcSt11char_traitsIcESaIcEEEA1_cE6FormatERKS7_
FNA:6,0,_ZN7testing8internal19FormatForComparisonINSt7__cxx1112basic_stringIcSt11char_traitsIcESaIcEEEA2_cE6FormatERKS7_
FNA:6,0,_ZN7testing8internal19FormatForComparisonINSt7__cxx1112basic_stringIcSt11char_traitsIcESaIcEEEA4_cE6FormatERKS7_
FNA:6,0,_ZN7testing8internal19FormatForComparisonINSt7__cxx1112basic_stringIcSt11char_traitsIcESaIcEEEA6_cE6FormatERKS7_
FNA:6,0,_ZN7testing8internal19FormatForComparisonINSt7__cxx1112basic_stringIcSt11char_traitsIcESaIcEEEA7_cE6FormatERKS7_
FNA:6,0,_ZN7testing8internal19FormatForComparisonINSt7__cxx1112basic_stringIcSt11char_traitsIcESaIcEEES7_E6FormatERKS7_
FNA:6,0,_ZN7testing8internal19FormatForComparisonIiiE6FormatB5cxx11ERKi
FNL:7,388,390
FNA:7,0,_ZN7testing8internal19FormatForComparisonIA10_cNSt7__cxx1112basic_stringIcSt11char_traitsIcESaIcEEEE6FormatEPKc
FNA:7,0,_ZN7testing8internal19FormatForComparisonIA12_cNSt7__cxx1112basic_stringIcSt11char_traitsIcESaIcEEEE6FormatEPKc
FNA:7,0,_ZN7testing8internal19FormatForComparisonIA16_cNSt7__cxx1112basic_stringIcSt11char_traitsIcESaIcEEEE6FormatEPKc
FNA:7,0,_ZN7testing8internal19FormatForComparisonIA1_cNSt7__cxx1112basic_stringIcSt11char_traitsIcESaIcEEEE6FormatEPKc
FNA:7,0,_ZN7testing8internal19FormatForComparisonIA2_cNSt7__cxx1112basic_stringIcSt11char_traitsIcESaIcEEEE6FormatEPKc
FNA:7,0,_ZN7testing8internal19FormatForComparisonIA4_cNSt7__cxx1112basic_stringIcSt11char_traitsIcESaIcEEEE6FormatEPKc
FNA:7,0,_ZN7testing8internal19FormatForComparisonIA6_cNSt7__cxx1112basic_stringIcSt11char_traitsIcESaIcEEEE6FormatEPKc
FNA:7,0,_ZN7testing8internal19FormatForComparisonIA7_cNSt7__cxx1112basic_stringIcSt11char_traitsIcESaIcEEEE6FormatEPKc
FNL:8,433,433
FNA:8,0,_ZN7testing8internal19FormatForComparisonIPKcNSt7__cxx1112basic_stringIcSt11char_traitsIcESaIcEEEE6FormatES3_
FNL:9,459,462
FNA:9,0,_ZN7testing8internal33FormatForComparisonFailureMessageIA10_cNSt7__cxx1112basic_stringIcSt11char_traitsIcESaIcEEEEES8_RKT_RKT0_
FNA:9,0,_ZN7testing8internal33FormatForComparisonFailureMessageIA12_cNSt7__cxx1112basic_stringIcSt11char_traitsIcESaIcEEEEES8_RKT_RKT0_
FNA:9,0,_ZN7testing8internal33FormatForComparisonFailureMessageIA16_cNSt7__cxx1112basic_stringIcSt11char_traitsIcESaIcEEEEES8_RKT_RKT0_
FNA:9,0,_ZN7testing8internal33FormatForComparisonFailureMessageIA1_cNSt7__cxx1112basic_stringIcSt11char_traitsIcESaIcEEEEES8_RKT_RKT0_
FNA:9,0,_ZN7testing8internal33FormatForComparisonFailureMessageIA2_cNSt7__cxx1112basic_stringIcSt11char_traitsIcESaIcEEEEES8_RKT_RKT0_
FNA:9,0,_ZN7testing8internal33FormatForComparisonFailureMessageIA4_cNSt7__cxx1112basic_stringIcSt11char_traitsIcESaIcEEEEES8_RKT_RKT0_
FNA:9,0,_ZN7testing8internal33FormatForComparisonFailureMessageIA6_cNSt7__cxx1112basic_stringIcSt11char_traitsIcESaIcEEEEES8_RKT_RKT0_
FNA:9,0,_ZN7testing8internal33FormatForComparisonFailureMessageIA7_cNSt7__cxx1112basic_stringIcSt11char_traitsIcESaIcEEEEES8_RKT_RKT0_
FNA:9,0,_ZN7testing8internal33FormatForComparisonFailureMessageINSt7__cxx1112basic_stringIcSt11char_traitsIcESaIcEEEA10_cEES7_RKT_RKT0_
FNA:9,0,_ZN7testing8internal33FormatForComparisonFailureMessageINSt7__cxx1112basic_stringIcSt11char_traitsIcESaIcEEEA12_cEES7_RKT_RKT0_
FNA:9,0,_ZN7testing8internal33FormatForComparisonFailureMessageINSt7__cxx1112basic_stringIcSt11char_traitsIcESaIcEEEA16_cEES7_RKT_RKT0_
FNA:9,0,_ZN7testing8internal33FormatForComparisonFailureMessageINSt7__cxx1112basic_stringIcSt11char_traitsIcESaIcEEEA1_cEES7_RKT_RKT0_
FNA:9,0,_ZN7testing8internal33FormatForComparisonFailureMessageINSt7__cxx1112basic_stringIcSt11char_traitsIcESaIcEEEA2_cEES7_RKT_RKT0_
FNA:9,0,_ZN7testing8internal33FormatForComparisonFailureMessageINSt7__cxx1112basic_stringIcSt11char_traitsIcESaIcEEEA4_cEES7_RKT_RKT0_
FNA:9,0,_ZN7testing8internal33FormatForComparisonFailureMessageINSt7__cxx1112basic_stringIcSt11char_traitsIcESaIcEEEA6_cEES7_RKT_RKT0_
FNA:9,0,_ZN7testing8internal33FormatForComparisonFailureMessageINSt7__cxx1112basic_stringIcSt11char_traitsIcESaIcEEEA7_cEES7_RKT_RKT0_
FNA:9,0,_ZN7testing8internal33FormatForComparisonFailureMessageINSt7__cxx1112basic_stringIcSt11char_traitsIcESaIcEEES7_EES7_RKT_RKT0_
FNA:9,0,_ZN7testing8internal33FormatForComparisonFailureMessageIiiEENSt7__cxx1112basic_stringIcSt11char_traitsIcESaIcEEERKT_RKT0_
FNL:10,486,488
FNA:10,0,_ZN7testing8internal7PrintToIiEEvRKT_PSo
FNL:11,696,698
FNA:11,0,_ZN7testing8internal7PrintToERKNSt7__cxx1112basic_stringIcSt11char_traitsIcESaIcEEEPSo
FNL:12,835,845
FNA:12,0,_ZN7testing8internal16UniversalPrinterINSt7__cxx1112basic_stringIcSt11char_traitsIcESaIcEEEE5PrintERKS7_PSo
FNA:12,0,_ZN7testing8internal16UniversalPrinterIiE5PrintERKiPSo
FNF:13
FNH:0
DA:244,0
DA:248,0
DA:249,0
DA:348,0
DA:358,0
DA:359,0
DA:379,0
DA:380,0
DA:388,0
DA:389,0
DA:433,0
DA:459,0
DA:461,0
DA:486,0
DA:487,0
DA:488,0
DA:696,0
DA:697,0
DA:698,0
DA:835,0
DA:844,0
DA:845,0
DA:1025,0
DA:1026,0
DA:1027,0
DA:1053,0
DA:1054,0
DA:1055,0
DA:1057,0
DA:1059,0
DA:1144,0
DA:1148,0
DA:1149,0
DA:1184,0
DA:1185,0
DA:1186,0
DA:1187,0
DA:1188,0
LF:38
LH:0
end_of_record
TN:
SF:/usr/include/gtest/gtest.h
FNL:0,1374,1380
FNA:0,0,_ZN7testing8internal18CmpHelperEQFailureINSt7__cxx1112basic_stringIcSt11char_traitsIcESaIcEEEA10_cEENS_15AssertionResultEPKcSB_RKT_RKT0_
FNA:0,0,_ZN7testing8internal18CmpHelperEQFailureINSt7__cxx1112basic_stringIcSt11char_traitsIcESaIcEEEA12_cEENS_15AssertionResultEPKcSB_RKT_RKT0_
FNA:0,0,_ZN7testing8internal18CmpHelperEQFailureINSt7__cxx1112basic_stringIcSt11char_traitsIcESaIcEEEA16_cEENS_15AssertionResultEPKcSB_RKT_RKT0_
FNA:0,0,_ZN7testing8internal18CmpHelperEQFailureINSt7__cxx1112basic_stringIcSt11char_traitsIcESaIcEEEA1_cEENS_15AssertionResultEPKcSB_RKT_RKT0_
FNA:0,0,_ZN7testing8internal18CmpHelperEQFailureINSt7__cxx1112basic_stringIcSt11char_traitsIcESaIcEEEA2_cEENS_15AssertionResultEPKcSB_RKT_RKT0_
FNA:0,0,_ZN7testing8internal18CmpHelperEQFailureINSt7__cxx1112basic_stringIcSt11char_traitsIcESaIcEEEA4_cEENS_15AssertionResultEPKcSB_RKT_RKT0_
FNA:0,0,_ZN7testing8internal18CmpHelperEQFailureINSt7__cxx1112basic_stringIcSt11char_traitsIcESaIcEEEA6_cEENS_15AssertionResultEPKcSB_RKT_RKT0_
FNA:0,0,_ZN7testing8internal18CmpHelperEQFailureINSt7__cxx1112basic_stringIcSt11char_traitsIcESaIcEEEA7_cEENS_15AssertionResultEPKcSB_RKT_RKT0_
FNA:0,0,_ZN7testing8internal18CmpHelperEQFailureINSt7__cxx1112basic_stringIcSt11char_traitsIcESaIcEEES7_EENS_15AssertionResultEPKcSA_RKT_RKT0_
FNA:0,0,_ZN7testing8internal18CmpHelperEQFailureIiiEENS_15AssertionResultEPKcS4_RKT_RKT0_
FNL:1,1391,1399
FNA:1,1,_ZN7testing8internal11CmpHelperEQINSt7__cxx1112basic_stringIcSt11char_traitsIcESaIcEEEA10_cEENS_15AssertionResultEPKcSB_RKT_RKT0_
FNA:1,14,_ZN7testing8internal11CmpHelperEQINSt7__cxx1112basic_stringIcSt11char_traitsIcESaIcEEEA12_cEENS_15AssertionResultEPKcSB_RKT_RKT0_
FNA:1,1,_ZN7testing8internal11CmpHelperEQINSt7__cxx1112basic_stringIcSt11char_traitsIcESaIcEEEA16_cEENS_15AssertionResultEPKcSB_RKT_RKT0_
FNA:1,1,_ZN7testing8internal11CmpHelperEQINSt7__cxx1112basic_stringIcSt11char_traitsIcESaIcEEEA1_cEENS_15AssertionResultEPKcSB_RKT_RKT0_
FNA:1,98,_ZN7testing8internal11CmpHelperEQINSt7__cxx1112basic_stringIcSt11char_traitsIcESaIcEEEA2_cEENS_15AssertionResultEPKcSB_RKT_RKT0_
FNA:1,14,_ZN7testing8internal11CmpHelperEQINSt7__cxx1112basic_stringIcSt11char_traitsIcESaIcEEEA4_cEENS_15AssertionResultEPKcSB_RKT_RKT0_
FNA:1,182,_ZN7testing8internal11CmpHelperEQINSt7__cxx1112basic_stringIcSt11char_traitsIcESaIcEEEA6_cEENS_15AssertionResultEPKcSB_RKT_RKT0_
FNA:1,14,_ZN7testing8internal11CmpHelperEQINSt7__cxx1112basic_stringIcSt11char_traitsIcESaIcEEEA7_cEENS_15AssertionResultEPKcSB_RKT_RKT0_
FNA:1,3000,_ZN7testing8internal11CmpHelperEQINSt7__cxx1112basic_stringIcSt11char_traitsIcESaIcEEES7_EENS_15AssertionResultEPKcSA_RKT_RKT0_
FNA:1,406,_ZN7testing8internal11CmpHelperEQIiiEENS_15AssertionResultEPKcS4_RKT_RKT0_
FNL:2,1410,1414
FNA:2,1,_ZN7testing8internal8EqHelper7CompareINSt7__cxx1112basic_stringIcSt11char_traitsIcESaIcEEEA10_cLPv0EEENS_15AssertionResultEPKcSD_RKT_RKT0_
FNA:2,14,_ZN7testing8internal8EqHelper7CompareINSt7__cxx1112basic_stringIcSt11char_traitsIcESaIcEEEA12_cLPv0EEENS_15AssertionResultEPKcSD_RKT_RKT0_
FNA:2,1,_ZN7testing8internal8EqHelper7CompareINSt7__cxx1112basic_stringIcSt11char_traitsIcESaIcEEEA16_cLPv0EEENS_15AssertionResultEPKcSD_RKT_RKT0_
FNA:2,1,_ZN7testing8internal8EqHelper7CompareINSt7__cxx1112basic_stringIcSt11char_traitsIcESaIcEEEA1_cLPv0EEENS_15AssertionResultEPKcSD_RKT_RKT0_
FNA:2,98,_ZN7testing8internal8EqHelper7CompareINSt7__cxx1112basic_stringIcSt11char_traitsIcESaIcEEEA2_cLPv0EEENS_15AssertionResultEPKcSD_RKT_RKT0_
FNA:2,14,_ZN7testing8internal8EqHelper7CompareINSt7__cxx1112basic_stringIcSt11char_traitsIcESaIcEEEA4_cLPv0EEENS_15AssertionResultEPKcSD_RKT_RKT0_
FNA:2,182,_ZN7testing8internal8EqHelper7CompareINSt7__cxx1112basic_stringIcSt11char_traitsIcESaIcEEEA6_cLPv0EEENS_15AssertionResultEPKcSD_RKT_RKT0_
FNA:2,14,_ZN7testing8internal8EqHelper7CompareINSt7__cxx1112basic_stringIcSt11char_traitsIcESaIcEEEA7_cLPv0EEENS_15AssertionResultEPKcSD_RKT_RKT0_
FNA:2,3000,_ZN7testing8internal8EqHelper7CompareINSt7__cxx1112basic_stringIcSt11char_traitsIcESaIcEEES8_LPv0EEENS_15AssertionResultEPKcSC_RKT_RKT0_
FNA:2,406,_ZN7testing8internal8EqHelper7CompareIiiLPv0EEENS_15AssertionResultEPKcS6_RKT_RKT0_
FNL:3,1443,1450
FNA:3,0,_ZN7testing8internal18CmpHelperOpFailureINSt7__cxx1112basic_stringIcSt11char_traitsIcESaIcEEES7_EENS_15AssertionResultEPKcSA_RKT_RKT0_SA_
FNL:4,1472,1472
FNA:4,1,_ZN7testing8internal11CmpHelperNEINSt7__cxx1112basic_stringIcSt11char_traitsIcESaIcEEES7_EENS_15AssertionResultEPKcSA_RKT_RKT0_
FNL:5,255,255
FNA:5,0,_ZN7testing4Test14SetUpTestSuiteEv
FNL:6,263,263
FNA:6,0,_ZN7testing4Test17TearDownTestSuiteEv
FNL:7,268,268
FNA:7,0,_ZN7testing4Test16TearDownTestCaseEv
FNL:8,269,269
FNA:8,0,_ZN7testing4Test13SetUpTestCaseEv
FNL:9,356,356
FNA:9,0,_ZN7testing4Test5SetupEv
FNF:10
FNH:3
DA:255,0
DA:263,0
DA:268,0
DA:269,0
DA:356,0
DA:1374,0
DA:1379,0
DA:1391,3731
DA:1394,3731
DA:1395,3731
DA:1398,0
DA:1410,3731
DA:1413,3731
DA:1443,0
DA:1447,0
DA:1448,0
DA:1449,0
DA:1472,1
LF:18
LH:6
end_of_record
TN:
SF:/usr/include/gtest/internal/gtest-internal.h
FNL:0,437,437
FNA:0,0,_ZN7testing8internal15TestFactoryBaseD0Ev
FNA:0,615,_ZN7testing8internal15TestFactoryBaseD2Ev
FNL:1,444,444
FNA:1,615,_ZN7testing8internal15TestFactoryBaseC2Ev
FNL:2,456,456
FNA:2,14,_ZN7testing8internal15TestFactoryImplI18QueueTest_Pop_TestE10CreateTestEv
FNA:2,14,_ZN7testing8internal15TestFactoryImplI19ArrayTest_Push_TestE10CreateTestEv
FNA:2,14,_ZN7testing8internal15TestFactoryImplI20ListTest_Search_TestE10CreateTestEv
FNA:2,14,_ZN7testing8internal15TestFactoryImplI21ArrayTest_Remove_TestE10CreateTestEv
FNA:2,14,_ZN7testing8internal15TestFactoryImplI21ListTest_AddHead_TestE10CreateTestEv
FNA:2,14,_ZN7testing8internal15TestFactoryImplI21ListTest_AddTail_TestE10CreateTestEv
FNA:2,14,_ZN7testing8internal15TestFactoryImplI23ListTest_LargeData_TestE10CreateTestEv
FNA:2,14,_ZN7testing8internal15TestFactoryImplI24ListTest_RemoveHead_TestE10CreateTestEv
FNA:2,14,_ZN7testing8internal15TestFactoryImplI24ListTest_RemoveTail_TestE10CreateTestEv
FNA:2,14,_ZN7testing8internal15TestFactoryImplI24StackTest_LargeData_TestE10CreateTestEv
FNA:2,14,_ZN7testing8internal15TestFactoryImplI25ArrayTest_SetElement_TestE10CreateTestEv
FNA:2,14,_ZN7testing8internal15TestFactoryImplI25StackTest_ClearStack_TestE10CreateTestEv
FNA:2,14,_ZN7testing8internal15TestFactoryImplI25StackTest_PushAndPop_TestE10CreateTestEv
FNA:2,14,_ZN7testing8internal15TestFactoryImplI26ArrayTest_FindElement_TestE10CreateTestEv
FNA:2,14,_ZN7testing8internal15TestFactoryImplI26QueueTest_QueueLength_TestE10CreateTestEv
FNA:2,14,_ZN7testing8internal15TestFactoryImplI26StackTest_StackLength_TestE10CreateTestEv
FNA:2,1,_ZN7testing8internal15TestFactoryImplI27HashTableTest_ReuseKey_TestE10CreateTestEv
FNA:2,14,_ZN7testing8internal15TestFactoryImplI27ListTest_InsertAtIndex_TestE10CreateTestEv
FNA:2,14,_ZN7testing8internal15TestFactoryImplI27ListTest_RemoveByValue_TestE10CreateTestEv
FNA:2,14,_ZN7testing8internal15TestFactoryImplI27QueueTest_PushAndFront_TestE10CreateTestEv
FNA:2,1,_ZN7testing8internal15TestFactoryImplI28HashTableTest_KeyExists_TestE10CreateTestEv
FNA:2,1,_ZN7testing8internal15TestFactoryImplI28HashTableTest_LargeData_TestE10CreateTestEv
FNA:2,1,_ZN7testing8internal15TestFactoryImplI28HashTableTest_NoSuchKey_TestE10CreateTestEv
FNA:2,1,_ZN7testing8internal15TestFactoryImplI28HashTableTest_RemoveKey_TestE10CreateTestEv
FNA:2,1,_ZN7testing8internal15TestFactoryImplI29HashTableTest_EmptyValue_TestE10CreateTestEv
FNA:2,14,_ZN7testing8internal15TestFactoryImplI31ArrayTest_IndexOutOfBounds_TestE10CreateTestEv
FNA:2,14,_ZN7testing8internal15TestFactoryImplI31ArrayTest_IndexingOperator_TestE10CreateTestEv
FNA:2,14,_ZN7testing8internal15TestFactoryImplI31ArrayTest_PushResizesArray_TestE10CreateTestEv
FNA:2,14,_ZN7testing8internal15TestFactoryImplI31FullTreeTest_CheckFullTree_TestE10CreateTestEv
FNA:2,14,_ZN7testing8internal15TestFactoryImplI31FullTreeTest_InsertAndFind_TestE10CreateTestEv
FNA:2,14,_ZN7testing8internal15TestFactoryImplI31ListTest_OutOfBoundsAccess_TestE10CreateTestEv
FNA:2,14,_ZN7testing8internal15TestFactoryImplI32QueueTest_PopFromEmptyQueue_TestE10CreateTestEv
FNA:2,14,_ZN7testing8internal15TestFactoryImplI32StackTest_PopFromEmptyStack_TestE10CreateTestEv
FNA:2,14,_ZN7testing8internal15TestFactoryImplI33ArrayTest_ConstructorAndSize_TestE10CreateTestEv
FNA:2,1,_ZN7testing8internal15TestFactoryImplI33HashTableTest_OverwriteValue_TestE10CreateTestEv
FNA:2,14,_ZN7testing8internal15TestFactoryImplI33QueueTest_MultiplePushAndPop_TestE10CreateTestEv
FNA:2,14,_ZN7testing8internal15TestFactoryImplI33StackTest_MultiplePushAndPop_TestE10CreateTestEv
FNA:2,1,_ZN7testing8internal15TestFactoryImplI34HashTableTest_NoSuchKeyRemove_TestE10CreateTestEv
FNA:2,14,_ZN7testing8internal15TestFactoryImplI34QueueTest_QueueWithOneElement_TestE10CreateTestEv
FNA:2,1,_ZN7testing8internal15TestFactoryImplI35HashTableTest_HandleCollisions_TestE10CreateTestEv
FNA:2,14,_ZN7testing8internal15TestFactoryImplI36ArrayTest_DestructorClearsArray_TestE10CreateTestEv
FNA:2,1,_ZN7testing8internal15TestFactoryImplI36HashTableTest_InsertAndRetrieve_TestE10CreateTestEv
FNA:2,14,_ZN7testing8internal15TestFactoryImplI38ListTest_RemoveNonExistentElement_TestE10CreateTestEv
FNA:2,14,_ZN7testing8internal15TestFactoryImplI40FullTreeTest_BalanceAfterInsertions_TestE10CreateTestEv
FNA:2,1,_ZN7testing8internal15TestFactoryImplI40HashTableTest_ConstructorDestructor_TestE10CreateTestEv
FNA:2,1,_ZN7testing8internal15TestFactoryImplI42HashTableTest_DestructorHandlesMemory_TestE10CreateTestEv
FNL:3,477,478
FNA:3,615,_ZN7testing8internal12CodeLocationC2ENSt7__cxx1112basic_stringIcSt11char_traitsIcESaIcEEEi
FNL:4,490,493
FNA:4,2460,_ZN7testing8internal19GetNotDefaultOrNullEPFvvES2_
FNL:5,505,524
FNA:5,615,_ZN7testing8internal16SuiteApiResolverINS_4TestEE19GetSetUpCaseOrSuiteEPKci
FNL:6,526,545
FNA:6,615,_ZN7testing8internal16SuiteApiResolverINS_4TestEE22GetTearDownCaseOrSuiteEPKci
FNL:7,837,837
FNA:7,125,_ZN7testing8internal14TrueWithStringC2Ev
FNL:8,840,840
FNA:8,125,_ZNK7testing8internal14TrueWithStringcvbEv
FNF:9
FNH:9
DA:437,615
DA:444,615
DA:456,488
DA:477,615
DA:478,615
DA:490,2460
DA:492,2460
DA:505,615
DA:509,615
DA:511,615
DA:513,615
DA:516,0
DA:518,615
DA:526,615
DA:530,615
DA:532,615
DA:534,615
DA:537,0
DA:539,615
DA:837,125
DA:840,125
LF:21
LH:19
end_of_record
TN:
SF:/usr/include/gtest/internal/gtest-port.h
FNL:0,1083,1083
FNA:0,0,_ZN7testing8internal8GTestLog9GetStreamEv
FNF:1
FNH:0
DA:1083,0
LF:1
LH:0
end_of_record
TN:
SF:/usr/include/gtest/internal/gtest-type-util.h
FNL:0,61,87
FNA:0,0,_ZN7testing8internal31CanonicalizeForStdLibVersioningENSt7__cxx1112basic_stringIcSt11char_traitsIcESaIcEEE
FNL:1,91,121
FNA:1,0,_ZN7testing8internal11GetTypeNameB5cxx11ERKSt9type_info
FNF:2
FNH:0
DA:61,0
DA:63,0
DA:64,0
DA:65,0
DA:67,0
DA:74,0
DA:75,0
DA:78,0
DA:79,0
DA:80,0
DA:83,0
DA:84,0
DA:86,0
DA:91,0
DA:92,0
DA:94,0
DA:100,0
DA:101,0
DA:102,0
DA:103,0
DA:121,0
LF:21
LH:0
end_of_record
TN:
SF:/usr/include/x86_64-linux-gnu/c++/13/bits/c++config.h
FNL:0,540,551
FNA:0,16169073,_ZSt23__is_constant_evaluatedv
FNF:1
FNH:1
DA:540,16169073
DA:547,16169073
LF:2
LH:2
end_of_record
